ARM GAS  C:\Users\ADMINI~1\AppData\Local\Temp\cc7pslQz.s 			page 1


   1              		.cpu cortex-m3
   2              		.arch armv7-m
   3              		.fpu softvfp
   4              		.eabi_attribute 20, 1
   5              		.eabi_attribute 21, 1
   6              		.eabi_attribute 23, 3
   7              		.eabi_attribute 24, 1
   8              		.eabi_attribute 25, 1
   9              		.eabi_attribute 26, 1
  10              		.eabi_attribute 30, 1
  11              		.eabi_attribute 34, 1
  12              		.eabi_attribute 18, 4
  13              		.file	"ili9341.c"
  14              		.text
  15              	.Ltext0:
  16              		.cfi_sections	.debug_frame
  17              		.section	.text._swap,"ax",%progbits
  18              		.align	1
  19              		.syntax unified
  20              		.thumb
  21              		.thumb_func
  23              	_swap:
  24              	.LVL0:
  25              	.LFB82:
  26              		.file 1 "Core/Src/ili9341.c"
   1:Core/Src/ili9341.c **** #include "stm32f1xx_hal.h"
   2:Core/Src/ili9341.c **** #include "ili9341.h"
   3:Core/Src/ili9341.c **** #include "main.h"
   4:Core/Src/ili9341.c **** 
   5:Core/Src/ili9341.c **** 
   6:Core/Src/ili9341.c **** static void ILI9341_Select()
   7:Core/Src/ili9341.c **** {
   8:Core/Src/ili9341.c ****     HAL_GPIO_WritePin(ILI9341_CS_GPIO_Port, ILI9341_CS_Pin, GPIO_PIN_RESET);
   9:Core/Src/ili9341.c ****     
  10:Core/Src/ili9341.c **** }
  11:Core/Src/ili9341.c **** 
  12:Core/Src/ili9341.c **** void ILI9341_Unselect()
  13:Core/Src/ili9341.c **** {
  14:Core/Src/ili9341.c ****     HAL_GPIO_WritePin(ILI9341_CS_GPIO_Port, ILI9341_CS_Pin, GPIO_PIN_SET);
  15:Core/Src/ili9341.c **** }
  16:Core/Src/ili9341.c **** 
  17:Core/Src/ili9341.c **** static void ILI9341_Reset()
  18:Core/Src/ili9341.c **** {
  19:Core/Src/ili9341.c ****     HAL_GPIO_WritePin(ILI9341_RES_GPIO_Port, ILI9341_RES_Pin, GPIO_PIN_RESET);
  20:Core/Src/ili9341.c ****     HAL_Delay(10);
  21:Core/Src/ili9341.c ****     HAL_GPIO_WritePin(ILI9341_RES_GPIO_Port, ILI9341_RES_Pin, GPIO_PIN_SET);
  22:Core/Src/ili9341.c **** }
  23:Core/Src/ili9341.c **** 
  24:Core/Src/ili9341.c **** static void ILI9341_WriteCommand(uint8_t cmd)
  25:Core/Src/ili9341.c **** {
  26:Core/Src/ili9341.c ****     HAL_GPIO_WritePin(ILI9341_DC_GPIO_Port, ILI9341_DC_Pin, GPIO_PIN_RESET);
  27:Core/Src/ili9341.c ****     HAL_SPI_Transmit(&ILI9341_SPI_PORT, &cmd, sizeof(cmd), HAL_MAX_DELAY);
  28:Core/Src/ili9341.c **** }
  29:Core/Src/ili9341.c **** 
  30:Core/Src/ili9341.c **** static void ILI9341_WriteData(uint8_t* buff, size_t buff_size)
  31:Core/Src/ili9341.c **** {
  32:Core/Src/ili9341.c ****     HAL_GPIO_WritePin(ILI9341_DC_GPIO_Port, ILI9341_DC_Pin, GPIO_PIN_SET);
ARM GAS  C:\Users\ADMINI~1\AppData\Local\Temp\cc7pslQz.s 			page 2


  33:Core/Src/ili9341.c **** 
  34:Core/Src/ili9341.c ****     // split data in small chunks because HAL can't send more then 64K at once
  35:Core/Src/ili9341.c ****     while(buff_size > 0) {
  36:Core/Src/ili9341.c ****         uint16_t chunk_size = buff_size > 32768 ? 32768 : buff_size;
  37:Core/Src/ili9341.c ****         HAL_SPI_Transmit(&ILI9341_SPI_PORT, buff, chunk_size, HAL_MAX_DELAY);
  38:Core/Src/ili9341.c ****         buff += chunk_size;
  39:Core/Src/ili9341.c ****         buff_size -= chunk_size;
  40:Core/Src/ili9341.c ****     }
  41:Core/Src/ili9341.c **** }
  42:Core/Src/ili9341.c **** 
  43:Core/Src/ili9341.c **** static void ILI9341_SetAddressWindow(uint16_t x0, uint16_t y0, uint16_t x1, uint16_t y1)
  44:Core/Src/ili9341.c **** {
  45:Core/Src/ili9341.c ****     // column address set
  46:Core/Src/ili9341.c ****     ILI9341_WriteCommand(0x2A); // CASET
  47:Core/Src/ili9341.c ****     {
  48:Core/Src/ili9341.c ****         uint8_t data[] = { (x0 >> 8) & 0xFF, x0 & 0xFF, (x1 >> 8) & 0xFF, x1 & 0xFF };
  49:Core/Src/ili9341.c ****         ILI9341_WriteData(data, sizeof(data));
  50:Core/Src/ili9341.c ****     }
  51:Core/Src/ili9341.c **** 
  52:Core/Src/ili9341.c ****     // row address set
  53:Core/Src/ili9341.c ****     ILI9341_WriteCommand(0x2B); // RASET
  54:Core/Src/ili9341.c ****     {
  55:Core/Src/ili9341.c ****         uint8_t data[] = { (y0 >> 8) & 0xFF, y0 & 0xFF, (y1 >> 8) & 0xFF, y1 & 0xFF };
  56:Core/Src/ili9341.c ****         ILI9341_WriteData(data, sizeof(data));
  57:Core/Src/ili9341.c ****     }
  58:Core/Src/ili9341.c **** 
  59:Core/Src/ili9341.c ****     // write to RAM
  60:Core/Src/ili9341.c ****     ILI9341_WriteCommand(0x2C); // RAMWR
  61:Core/Src/ili9341.c **** }
  62:Core/Src/ili9341.c **** 
  63:Core/Src/ili9341.c **** void ILI9341_Init()
  64:Core/Src/ili9341.c **** {
  65:Core/Src/ili9341.c ****     ILI9341_Select();
  66:Core/Src/ili9341.c ****     ILI9341_Reset();
  67:Core/Src/ili9341.c **** 
  68:Core/Src/ili9341.c ****     // command list is based on https://github.com/martnak/STM32-ILI9341
  69:Core/Src/ili9341.c **** 
  70:Core/Src/ili9341.c ****     // SOFTWARE RESET
  71:Core/Src/ili9341.c ****     ILI9341_WriteCommand(0x01);
  72:Core/Src/ili9341.c ****     HAL_Delay(1000);
  73:Core/Src/ili9341.c ****         
  74:Core/Src/ili9341.c ****     // POWER CONTROL A
  75:Core/Src/ili9341.c ****     ILI9341_WriteCommand(0xCB);
  76:Core/Src/ili9341.c ****     {
  77:Core/Src/ili9341.c ****         uint8_t data[] = { 0x39, 0x2C, 0x00, 0x34, 0x02 };
  78:Core/Src/ili9341.c ****         ILI9341_WriteData(data, sizeof(data));
  79:Core/Src/ili9341.c ****     }
  80:Core/Src/ili9341.c **** 
  81:Core/Src/ili9341.c ****     // POWER CONTROL B
  82:Core/Src/ili9341.c ****     ILI9341_WriteCommand(0xCF);
  83:Core/Src/ili9341.c ****     {
  84:Core/Src/ili9341.c ****         uint8_t data[] = { 0x00, 0xC1, 0x30 };
  85:Core/Src/ili9341.c ****         ILI9341_WriteData(data, sizeof(data));
  86:Core/Src/ili9341.c ****     }
  87:Core/Src/ili9341.c **** 
  88:Core/Src/ili9341.c ****     // DRIVER TIMING CONTROL A
  89:Core/Src/ili9341.c ****     ILI9341_WriteCommand(0xE8);
ARM GAS  C:\Users\ADMINI~1\AppData\Local\Temp\cc7pslQz.s 			page 3


  90:Core/Src/ili9341.c ****     {
  91:Core/Src/ili9341.c ****         uint8_t data[] = { 0x85, 0x00, 0x78 };
  92:Core/Src/ili9341.c ****         ILI9341_WriteData(data, sizeof(data));
  93:Core/Src/ili9341.c ****     }
  94:Core/Src/ili9341.c **** 
  95:Core/Src/ili9341.c ****     // DRIVER TIMING CONTROL B
  96:Core/Src/ili9341.c ****     ILI9341_WriteCommand(0xEA);
  97:Core/Src/ili9341.c ****     {
  98:Core/Src/ili9341.c ****         uint8_t data[] = { 0x00, 0x00 };
  99:Core/Src/ili9341.c ****         ILI9341_WriteData(data, sizeof(data));
 100:Core/Src/ili9341.c ****     }
 101:Core/Src/ili9341.c **** 
 102:Core/Src/ili9341.c ****     // POWER ON SEQUENCE CONTROL
 103:Core/Src/ili9341.c ****     ILI9341_WriteCommand(0xED);
 104:Core/Src/ili9341.c ****     {
 105:Core/Src/ili9341.c ****         uint8_t data[] = { 0x64, 0x03, 0x12, 0x81 };
 106:Core/Src/ili9341.c ****         ILI9341_WriteData(data, sizeof(data));
 107:Core/Src/ili9341.c ****     }
 108:Core/Src/ili9341.c **** 
 109:Core/Src/ili9341.c ****     // PUMP RATIO CONTROL
 110:Core/Src/ili9341.c ****     ILI9341_WriteCommand(0xF7);
 111:Core/Src/ili9341.c ****     {
 112:Core/Src/ili9341.c ****         uint8_t data[] = { 0x20 };
 113:Core/Src/ili9341.c ****         ILI9341_WriteData(data, sizeof(data));
 114:Core/Src/ili9341.c ****     }
 115:Core/Src/ili9341.c **** 
 116:Core/Src/ili9341.c ****     // POWER CONTROL,VRH[5:0]
 117:Core/Src/ili9341.c ****     ILI9341_WriteCommand(0xC0);
 118:Core/Src/ili9341.c ****     {
 119:Core/Src/ili9341.c ****         uint8_t data[] = { 0x23 };
 120:Core/Src/ili9341.c ****         ILI9341_WriteData(data, sizeof(data));
 121:Core/Src/ili9341.c ****     }
 122:Core/Src/ili9341.c **** 
 123:Core/Src/ili9341.c ****     // POWER CONTROL,SAP[2:0];BT[3:0]
 124:Core/Src/ili9341.c ****     ILI9341_WriteCommand(0xC1);
 125:Core/Src/ili9341.c ****     {
 126:Core/Src/ili9341.c ****         uint8_t data[] = { 0x10 };
 127:Core/Src/ili9341.c ****         ILI9341_WriteData(data, sizeof(data));
 128:Core/Src/ili9341.c ****     }
 129:Core/Src/ili9341.c **** 
 130:Core/Src/ili9341.c ****     // VCM CONTROL
 131:Core/Src/ili9341.c ****     ILI9341_WriteCommand(0xC5);
 132:Core/Src/ili9341.c ****     {
 133:Core/Src/ili9341.c ****         uint8_t data[] = { 0x3E, 0x28 };
 134:Core/Src/ili9341.c ****         ILI9341_WriteData(data, sizeof(data));
 135:Core/Src/ili9341.c ****     }
 136:Core/Src/ili9341.c **** 
 137:Core/Src/ili9341.c ****     // VCM CONTROL 2
 138:Core/Src/ili9341.c ****     ILI9341_WriteCommand(0xC7);
 139:Core/Src/ili9341.c ****     {
 140:Core/Src/ili9341.c ****         uint8_t data[] = { 0x86 };
 141:Core/Src/ili9341.c ****         ILI9341_WriteData(data, sizeof(data));
 142:Core/Src/ili9341.c ****     }
 143:Core/Src/ili9341.c **** 
 144:Core/Src/ili9341.c ****     // MEMORY ACCESS CONTROL
 145:Core/Src/ili9341.c ****     ILI9341_WriteCommand(0x36);
 146:Core/Src/ili9341.c ****     {
ARM GAS  C:\Users\ADMINI~1\AppData\Local\Temp\cc7pslQz.s 			page 4


 147:Core/Src/ili9341.c ****         uint8_t data[] = { 0x48 };
 148:Core/Src/ili9341.c ****         ILI9341_WriteData(data, sizeof(data));
 149:Core/Src/ili9341.c ****     }
 150:Core/Src/ili9341.c **** 
 151:Core/Src/ili9341.c ****     // PIXEL FORMAT
 152:Core/Src/ili9341.c ****     ILI9341_WriteCommand(0x3A);
 153:Core/Src/ili9341.c ****     {
 154:Core/Src/ili9341.c ****         uint8_t data[] = { 0x55 };
 155:Core/Src/ili9341.c ****         ILI9341_WriteData(data, sizeof(data));
 156:Core/Src/ili9341.c ****     }
 157:Core/Src/ili9341.c **** 
 158:Core/Src/ili9341.c ****     // FRAME RATIO CONTROL, STANDARD RGB COLOR
 159:Core/Src/ili9341.c ****     ILI9341_WriteCommand(0xB1);
 160:Core/Src/ili9341.c ****     {
 161:Core/Src/ili9341.c ****         uint8_t data[] = { 0x00, 0x18 };
 162:Core/Src/ili9341.c ****         ILI9341_WriteData(data, sizeof(data));
 163:Core/Src/ili9341.c ****     }
 164:Core/Src/ili9341.c **** 
 165:Core/Src/ili9341.c ****     // DISPLAY FUNCTION CONTROL
 166:Core/Src/ili9341.c ****     ILI9341_WriteCommand(0xB6);
 167:Core/Src/ili9341.c ****     {
 168:Core/Src/ili9341.c ****         uint8_t data[] = { 0x08, 0x82, 0x27 };
 169:Core/Src/ili9341.c ****         ILI9341_WriteData(data, sizeof(data));
 170:Core/Src/ili9341.c ****     }
 171:Core/Src/ili9341.c **** 
 172:Core/Src/ili9341.c ****     // 3GAMMA FUNCTION DISABLE
 173:Core/Src/ili9341.c ****     ILI9341_WriteCommand(0xF2);
 174:Core/Src/ili9341.c ****     {
 175:Core/Src/ili9341.c ****         uint8_t data[] = { 0x00 };
 176:Core/Src/ili9341.c ****         ILI9341_WriteData(data, sizeof(data));
 177:Core/Src/ili9341.c ****     }
 178:Core/Src/ili9341.c **** 
 179:Core/Src/ili9341.c ****     // GAMMA CURVE SELECTED
 180:Core/Src/ili9341.c ****     ILI9341_WriteCommand(0x26);
 181:Core/Src/ili9341.c ****     {
 182:Core/Src/ili9341.c ****         uint8_t data[] = { 0x01 };
 183:Core/Src/ili9341.c ****         ILI9341_WriteData(data, sizeof(data));
 184:Core/Src/ili9341.c ****     }
 185:Core/Src/ili9341.c **** 
 186:Core/Src/ili9341.c ****     // POSITIVE GAMMA CORRECTION
 187:Core/Src/ili9341.c ****     ILI9341_WriteCommand(0xE0);
 188:Core/Src/ili9341.c ****     {
 189:Core/Src/ili9341.c ****         uint8_t data[] = { 0x0F, 0x31, 0x2B, 0x0C, 0x0E, 0x08, 0x4E, 0xF1,
 190:Core/Src/ili9341.c ****                             0x37, 0x07, 0x10, 0x03, 0x0E, 0x09, 0x00 };
 191:Core/Src/ili9341.c ****         ILI9341_WriteData(data, sizeof(data));
 192:Core/Src/ili9341.c ****     }
 193:Core/Src/ili9341.c **** 
 194:Core/Src/ili9341.c ****     // NEGATIVE GAMMA CORRECTION
 195:Core/Src/ili9341.c ****     ILI9341_WriteCommand(0xE1);
 196:Core/Src/ili9341.c ****     {
 197:Core/Src/ili9341.c ****         uint8_t data[] = { 0x00, 0x0E, 0x14, 0x03, 0x11, 0x07, 0x31, 0xC1,
 198:Core/Src/ili9341.c ****                             0x48, 0x08, 0x0F, 0x0C, 0x31, 0x36, 0x0F };
 199:Core/Src/ili9341.c ****         ILI9341_WriteData(data, sizeof(data));
 200:Core/Src/ili9341.c ****     }
 201:Core/Src/ili9341.c **** 
 202:Core/Src/ili9341.c ****     // EXIT SLEEP
 203:Core/Src/ili9341.c ****     ILI9341_WriteCommand(0x11);
ARM GAS  C:\Users\ADMINI~1\AppData\Local\Temp\cc7pslQz.s 			page 5


 204:Core/Src/ili9341.c ****     HAL_Delay(120);
 205:Core/Src/ili9341.c **** 
 206:Core/Src/ili9341.c ****     // TURN ON DISPLAY
 207:Core/Src/ili9341.c ****     ILI9341_WriteCommand(0x29);
 208:Core/Src/ili9341.c **** 
 209:Core/Src/ili9341.c ****     // MADCTL
 210:Core/Src/ili9341.c ****     ILI9341_WriteCommand(0x36);
 211:Core/Src/ili9341.c ****     {
 212:Core/Src/ili9341.c ****         uint8_t data[] = { ILI9341_ROTATION };
 213:Core/Src/ili9341.c ****         ILI9341_WriteData(data, sizeof(data));
 214:Core/Src/ili9341.c ****     }
 215:Core/Src/ili9341.c **** 
 216:Core/Src/ili9341.c ****     ILI9341_Unselect();
 217:Core/Src/ili9341.c **** 
 218:Core/Src/ili9341.c ****     HAL_GPIO_WritePin(ILI9341_LED_GPIO_Port, ILI9341_LED_Pin, SET);
 219:Core/Src/ili9341.c **** }
 220:Core/Src/ili9341.c **** 
 221:Core/Src/ili9341.c **** void ILI9341_DrawPixel(uint16_t x, uint16_t y, uint16_t color)
 222:Core/Src/ili9341.c **** {
 223:Core/Src/ili9341.c ****     if((x >= ILI9341_WIDTH) || (y >= ILI9341_HEIGHT))
 224:Core/Src/ili9341.c ****         return;
 225:Core/Src/ili9341.c **** 
 226:Core/Src/ili9341.c ****     ILI9341_Select();
 227:Core/Src/ili9341.c **** 
 228:Core/Src/ili9341.c ****     ILI9341_SetAddressWindow(x, y, x+1, y+1);
 229:Core/Src/ili9341.c ****     uint8_t data[] = { color >> 8, color & 0xFF };
 230:Core/Src/ili9341.c ****     ILI9341_WriteData(data, sizeof(data));
 231:Core/Src/ili9341.c **** 
 232:Core/Src/ili9341.c ****     ILI9341_Unselect();
 233:Core/Src/ili9341.c **** }
 234:Core/Src/ili9341.c **** 
 235:Core/Src/ili9341.c **** void ILI9341_DrawLine(uint16_t x1, uint16_t y1, uint16_t x2, uint16_t y2, uint16_t color)
 236:Core/Src/ili9341.c **** {
 237:Core/Src/ili9341.c ****     uint16_t t; 
 238:Core/Src/ili9341.c **** 	int xerr = 0, yerr = 0, delta_x, delta_y, distance; 
 239:Core/Src/ili9341.c **** 	int incx, incy, uRow, uCol;
 240:Core/Src/ili9341.c **** 
 241:Core/Src/ili9341.c **** 	delta_x = x2 - x1;
 242:Core/Src/ili9341.c **** 	delta_y = y2 - y1; 
 243:Core/Src/ili9341.c **** 	uRow = x1; 
 244:Core/Src/ili9341.c **** 	uCol = y1;
 245:Core/Src/ili9341.c **** 
 246:Core/Src/ili9341.c **** 	if (delta_x > 0)
 247:Core/Src/ili9341.c ****         incx = 1;
 248:Core/Src/ili9341.c **** 	else if (delta_x == 0)
 249:Core/Src/ili9341.c ****         incx = 0;
 250:Core/Src/ili9341.c **** 	else 
 251:Core/Src/ili9341.c ****     {
 252:Core/Src/ili9341.c ****         incx = -1;
 253:Core/Src/ili9341.c ****         delta_x = -delta_x;
 254:Core/Src/ili9341.c ****     } 
 255:Core/Src/ili9341.c **** 	
 256:Core/Src/ili9341.c ****     if (delta_y > 0)
 257:Core/Src/ili9341.c ****         incy = 1; 
 258:Core/Src/ili9341.c **** 	else if (delta_y==0)
 259:Core/Src/ili9341.c ****         incy = 0;
 260:Core/Src/ili9341.c **** 	else
ARM GAS  C:\Users\ADMINI~1\AppData\Local\Temp\cc7pslQz.s 			page 6


 261:Core/Src/ili9341.c ****     {
 262:Core/Src/ili9341.c ****         incy = -1;
 263:Core/Src/ili9341.c ****         delta_y = -delta_y;
 264:Core/Src/ili9341.c ****     } 
 265:Core/Src/ili9341.c **** 
 266:Core/Src/ili9341.c **** 	if (delta_x > delta_y)
 267:Core/Src/ili9341.c ****         distance = delta_x;
 268:Core/Src/ili9341.c **** 	else 
 269:Core/Src/ili9341.c ****         distance = delta_y; 
 270:Core/Src/ili9341.c ****     
 271:Core/Src/ili9341.c **** 	for(t = 0; t <= distance + 1; t++)
 272:Core/Src/ili9341.c **** 	{  
 273:Core/Src/ili9341.c **** 		ILI9341_DrawPixel(uRow, uCol, color);
 274:Core/Src/ili9341.c **** 
 275:Core/Src/ili9341.c **** 		xerr += delta_x; 
 276:Core/Src/ili9341.c **** 		yerr += delta_y; 
 277:Core/Src/ili9341.c **** 
 278:Core/Src/ili9341.c **** 		if (xerr > distance) 
 279:Core/Src/ili9341.c **** 		{ 
 280:Core/Src/ili9341.c **** 			xerr -= distance; 
 281:Core/Src/ili9341.c **** 			uRow += incx; 
 282:Core/Src/ili9341.c **** 		} 
 283:Core/Src/ili9341.c **** 		if (yerr > distance) 
 284:Core/Src/ili9341.c **** 		{ 
 285:Core/Src/ili9341.c **** 			yerr -= distance; 
 286:Core/Src/ili9341.c **** 			uCol += incy; 
 287:Core/Src/ili9341.c **** 		} 
 288:Core/Src/ili9341.c **** 	}  
 289:Core/Src/ili9341.c **** }
 290:Core/Src/ili9341.c **** 
 291:Core/Src/ili9341.c **** static void ILI9341_WriteChar(uint16_t x, uint16_t y, char ch, FontDef font, uint16_t color, uint16
 292:Core/Src/ili9341.c **** {
 293:Core/Src/ili9341.c ****     uint32_t i, b, j;
 294:Core/Src/ili9341.c **** 
 295:Core/Src/ili9341.c ****     ILI9341_SetAddressWindow(x, y, x+font.width-1, y+font.height-1);
 296:Core/Src/ili9341.c **** 
 297:Core/Src/ili9341.c ****     for(i = 0; i < font.height; i++) {
 298:Core/Src/ili9341.c ****         b = font.data[(ch - 32) * font.height + i];
 299:Core/Src/ili9341.c ****         for(j = 0; j < font.width; j++) {
 300:Core/Src/ili9341.c ****             if((b << j) & 0x8000)  {
 301:Core/Src/ili9341.c ****                 uint8_t data[] = { color >> 8, color & 0xFF };
 302:Core/Src/ili9341.c ****                 ILI9341_WriteData(data, sizeof(data));
 303:Core/Src/ili9341.c ****             } else {
 304:Core/Src/ili9341.c ****                 uint8_t data[] = { bgcolor >> 8, bgcolor & 0xFF };
 305:Core/Src/ili9341.c ****                 ILI9341_WriteData(data, sizeof(data));
 306:Core/Src/ili9341.c ****             }
 307:Core/Src/ili9341.c ****         }
 308:Core/Src/ili9341.c ****     }
 309:Core/Src/ili9341.c **** }
 310:Core/Src/ili9341.c **** 
 311:Core/Src/ili9341.c **** void ILI9341_WriteString(uint16_t x, uint16_t y, const char* str, FontDef font, uint16_t color, uin
 312:Core/Src/ili9341.c **** {
 313:Core/Src/ili9341.c ****     ILI9341_Select();
 314:Core/Src/ili9341.c **** 
 315:Core/Src/ili9341.c ****     while(*str) {
 316:Core/Src/ili9341.c ****         if(x + font.width >= ILI9341_WIDTH) {
 317:Core/Src/ili9341.c ****             x = 0;
ARM GAS  C:\Users\ADMINI~1\AppData\Local\Temp\cc7pslQz.s 			page 7


 318:Core/Src/ili9341.c ****             y += font.height;
 319:Core/Src/ili9341.c ****             if(y + font.height >= ILI9341_HEIGHT) {
 320:Core/Src/ili9341.c ****                 break;
 321:Core/Src/ili9341.c ****             }
 322:Core/Src/ili9341.c **** 
 323:Core/Src/ili9341.c ****             if(*str == ' ') {
 324:Core/Src/ili9341.c ****                 // skip spaces in the beginning of the new line
 325:Core/Src/ili9341.c ****                 str++;
 326:Core/Src/ili9341.c ****                 continue;
 327:Core/Src/ili9341.c ****             }
 328:Core/Src/ili9341.c ****         }
 329:Core/Src/ili9341.c **** 
 330:Core/Src/ili9341.c ****         ILI9341_WriteChar(x, y, *str, font, color, bgcolor);
 331:Core/Src/ili9341.c ****         x += font.width;
 332:Core/Src/ili9341.c ****         str++;
 333:Core/Src/ili9341.c ****     }
 334:Core/Src/ili9341.c **** 
 335:Core/Src/ili9341.c ****     ILI9341_Unselect();
 336:Core/Src/ili9341.c **** }
 337:Core/Src/ili9341.c **** 
 338:Core/Src/ili9341.c **** void ILI9341_DrawRectangle(uint16_t x, uint16_t y, uint16_t w, uint16_t h, uint16_t color)
 339:Core/Src/ili9341.c **** {
 340:Core/Src/ili9341.c ****     ILI9341_DrawLine(x, y, x + w, y, color);
 341:Core/Src/ili9341.c ****     ILI9341_DrawLine(x + w, y, x + w, y + h, color);
 342:Core/Src/ili9341.c ****     ILI9341_DrawLine(x, y, x, y + h, color);
 343:Core/Src/ili9341.c ****     ILI9341_DrawLine(x, y + h, x + w, y + h, color);
 344:Core/Src/ili9341.c **** }
 345:Core/Src/ili9341.c **** 
 346:Core/Src/ili9341.c **** void ILI9341_FillRectangle(uint16_t x, uint16_t y, uint16_t w, uint16_t h, uint16_t color)
 347:Core/Src/ili9341.c **** {
 348:Core/Src/ili9341.c ****     // clipping
 349:Core/Src/ili9341.c ****     if((x >= ILI9341_WIDTH) || (y >= ILI9341_HEIGHT)) return;
 350:Core/Src/ili9341.c ****     if((x + w - 1) >= ILI9341_WIDTH) w = ILI9341_WIDTH - x;
 351:Core/Src/ili9341.c ****     if((y + h - 1) >= ILI9341_HEIGHT) h = ILI9341_HEIGHT - y;
 352:Core/Src/ili9341.c **** 
 353:Core/Src/ili9341.c ****     ILI9341_Select();
 354:Core/Src/ili9341.c ****     ILI9341_SetAddressWindow(x, y, x+w-1, y+h-1);
 355:Core/Src/ili9341.c **** 
 356:Core/Src/ili9341.c ****     uint8_t data[] = { color >> 8, color & 0xFF };
 357:Core/Src/ili9341.c ****     HAL_GPIO_WritePin(ILI9341_DC_GPIO_Port, ILI9341_DC_Pin, GPIO_PIN_SET);
 358:Core/Src/ili9341.c ****     for(y = h; y > 0; y--) {
 359:Core/Src/ili9341.c ****         for(x = w; x > 0; x--) {
 360:Core/Src/ili9341.c ****             HAL_SPI_Transmit(&ILI9341_SPI_PORT, data, sizeof(data), HAL_MAX_DELAY);
 361:Core/Src/ili9341.c ****         }
 362:Core/Src/ili9341.c ****     }
 363:Core/Src/ili9341.c **** 
 364:Core/Src/ili9341.c ****     ILI9341_Unselect();
 365:Core/Src/ili9341.c **** }
 366:Core/Src/ili9341.c **** 
 367:Core/Src/ili9341.c **** void ILI9341_FillScreen(uint16_t color)
 368:Core/Src/ili9341.c **** {
 369:Core/Src/ili9341.c ****     ILI9341_FillRectangle(0, 0, ILI9341_WIDTH, ILI9341_HEIGHT, color);
 370:Core/Src/ili9341.c **** }
 371:Core/Src/ili9341.c **** 
 372:Core/Src/ili9341.c **** void ILI9341_DrawImage(uint16_t x, uint16_t y, uint16_t w, uint16_t h, const uint16_t* data)
 373:Core/Src/ili9341.c **** {
 374:Core/Src/ili9341.c ****     if((x >= ILI9341_WIDTH) || (y >= ILI9341_HEIGHT)) return;
ARM GAS  C:\Users\ADMINI~1\AppData\Local\Temp\cc7pslQz.s 			page 8


 375:Core/Src/ili9341.c ****     if((x + w - 1) >= ILI9341_WIDTH) return;
 376:Core/Src/ili9341.c ****     if((y + h - 1) >= ILI9341_HEIGHT) return;
 377:Core/Src/ili9341.c **** 
 378:Core/Src/ili9341.c ****     ILI9341_Select();
 379:Core/Src/ili9341.c ****     ILI9341_SetAddressWindow(x, y, x+w-1, y+h-1);
 380:Core/Src/ili9341.c ****     ILI9341_WriteData((uint8_t*)data, sizeof(uint16_t)*w*h);
 381:Core/Src/ili9341.c ****     ILI9341_Unselect();
 382:Core/Src/ili9341.c **** }
 383:Core/Src/ili9341.c **** 
 384:Core/Src/ili9341.c **** void ILI9341_InvertColors(bool invert)
 385:Core/Src/ili9341.c **** {
 386:Core/Src/ili9341.c ****     ILI9341_Select();
 387:Core/Src/ili9341.c ****     ILI9341_WriteCommand(invert ? 0x21 /* INVON */ : 0x20 /* INVOFF */);
 388:Core/Src/ili9341.c ****     ILI9341_Unselect();
 389:Core/Src/ili9341.c **** }
 390:Core/Src/ili9341.c **** 
 391:Core/Src/ili9341.c **** void ILI9341_DrawTriangle(uint16_t x1, uint16_t y1, uint16_t x2, uint16_t y2, uint16_t x3, uint16_t
 392:Core/Src/ili9341.c **** {
 393:Core/Src/ili9341.c ****     ILI9341_DrawLine(x1, y1, x2, y2, color);
 394:Core/Src/ili9341.c ****     ILI9341_DrawLine(x2, y2, x3, y3, color);
 395:Core/Src/ili9341.c ****     ILI9341_DrawLine(x3, y3, x1, y1, color);
 396:Core/Src/ili9341.c **** }
 397:Core/Src/ili9341.c **** 
 398:Core/Src/ili9341.c **** static void _swap(uint16_t *a, uint16_t *b)
 399:Core/Src/ili9341.c **** {
  27              		.loc 1 399 1 view -0
  28              		.cfi_startproc
  29              		@ args = 0, pretend = 0, frame = 0
  30              		@ frame_needed = 0, uses_anonymous_args = 0
  31              		@ link register save eliminated.
 400:Core/Src/ili9341.c **** 	uint16_t tmp;
  32              		.loc 1 400 2 view .LVU1
 401:Core/Src/ili9341.c ****     tmp = *a;
  33              		.loc 1 401 5 view .LVU2
  34              		.loc 1 401 9 is_stmt 0 view .LVU3
  35 0000 0388     		ldrh	r3, [r0]
  36              	.LVL1:
 402:Core/Src/ili9341.c **** 	*a = *b;
  37              		.loc 1 402 2 is_stmt 1 view .LVU4
  38              		.loc 1 402 7 is_stmt 0 view .LVU5
  39 0002 0A88     		ldrh	r2, [r1]
  40              		.loc 1 402 5 view .LVU6
  41 0004 0280     		strh	r2, [r0]	@ movhi
 403:Core/Src/ili9341.c **** 	*b = tmp;
  42              		.loc 1 403 2 is_stmt 1 view .LVU7
  43              		.loc 1 403 5 is_stmt 0 view .LVU8
  44 0006 0B80     		strh	r3, [r1]	@ movhi
 404:Core/Src/ili9341.c **** }
  45              		.loc 1 404 1 view .LVU9
  46 0008 7047     		bx	lr
  47              		.cfi_endproc
  48              	.LFE82:
  50              		.global	__aeabi_i2d
  51              		.global	__aeabi_ddiv
  52              		.global	__aeabi_dadd
  53              		.global	__aeabi_dmul
  54              		.global	__aeabi_dcmpeq
ARM GAS  C:\Users\ADMINI~1\AppData\Local\Temp\cc7pslQz.s 			page 9


  55              		.global	__aeabi_d2iz
  56              		.section	.text.sqrt_t,"ax",%progbits
  57              		.align	1
  58              		.syntax unified
  59              		.thumb
  60              		.thumb_func
  62              	sqrt_t:
  63              	.LVL2:
  64              	.LFB84:
 405:Core/Src/ili9341.c **** 
 406:Core/Src/ili9341.c **** void ILI9341_FillTriangle(uint16_t x0, uint16_t y0, uint16_t x1, uint16_t y1, uint16_t x2, uint16_t
 407:Core/Src/ili9341.c **** {
 408:Core/Src/ili9341.c ****     uint16_t a, b, y, last;
 409:Core/Src/ili9341.c **** 	int dx01, dy01, dx02, dy02, dx12, dy12;
 410:Core/Src/ili9341.c **** 	long sa = 0;
 411:Core/Src/ili9341.c **** 	long sb = 0;
 412:Core/Src/ili9341.c **** 
 413:Core/Src/ili9341.c ****     if (y0 > y1) 
 414:Core/Src/ili9341.c **** 	{
 415:Core/Src/ili9341.c ****         _swap(&y0,&y1); 
 416:Core/Src/ili9341.c **** 		_swap(&x0,&x1);
 417:Core/Src/ili9341.c ****     }
 418:Core/Src/ili9341.c ****     if (y1 > y2) 
 419:Core/Src/ili9341.c **** 	{
 420:Core/Src/ili9341.c ****         _swap(&y2,&y1); 
 421:Core/Src/ili9341.c **** 		_swap(&x2,&x1);
 422:Core/Src/ili9341.c ****     }
 423:Core/Src/ili9341.c ****     if (y0 > y1) 
 424:Core/Src/ili9341.c **** 	{
 425:Core/Src/ili9341.c ****         _swap(&y0,&y1); 
 426:Core/Src/ili9341.c **** 		_swap(&x0,&x1);
 427:Core/Src/ili9341.c ****     }
 428:Core/Src/ili9341.c **** 	
 429:Core/Src/ili9341.c ****     if (y0 == y2) 
 430:Core/Src/ili9341.c **** 	{ 
 431:Core/Src/ili9341.c **** 		a = b = x0;
 432:Core/Src/ili9341.c **** 		if(x1 < a)
 433:Core/Src/ili9341.c ****         {
 434:Core/Src/ili9341.c **** 			a = x1;
 435:Core/Src/ili9341.c ****         }
 436:Core/Src/ili9341.c ****         else if (x1 > b)
 437:Core/Src/ili9341.c ****         {
 438:Core/Src/ili9341.c ****             b = x1;
 439:Core/Src/ili9341.c ****         }
 440:Core/Src/ili9341.c **** 
 441:Core/Src/ili9341.c ****         if (x2 < a)
 442:Core/Src/ili9341.c ****         {
 443:Core/Src/ili9341.c ****             a = x2;
 444:Core/Src/ili9341.c ****         }
 445:Core/Src/ili9341.c ****         else if (x2 > b)
 446:Core/Src/ili9341.c ****         {
 447:Core/Src/ili9341.c ****             b = x2;
 448:Core/Src/ili9341.c ****         }
 449:Core/Src/ili9341.c **** 
 450:Core/Src/ili9341.c **** 		ILI9341_FillRectangle(a, y0, b - a + 1, y0 - y0 + 1, color);
 451:Core/Src/ili9341.c **** 
 452:Core/Src/ili9341.c ****         return;
ARM GAS  C:\Users\ADMINI~1\AppData\Local\Temp\cc7pslQz.s 			page 10


 453:Core/Src/ili9341.c **** 	}
 454:Core/Src/ili9341.c **** 
 455:Core/Src/ili9341.c **** 	dx01 = x1 - x0;
 456:Core/Src/ili9341.c **** 	dy01 = y1 - y0;
 457:Core/Src/ili9341.c **** 	dx02 = x2 - x0;
 458:Core/Src/ili9341.c **** 	dy02 = y2 - y0;
 459:Core/Src/ili9341.c **** 	dx12 = x2 - x1;
 460:Core/Src/ili9341.c **** 	dy12 = y2 - y1;
 461:Core/Src/ili9341.c **** 	
 462:Core/Src/ili9341.c **** 	if(y1 == y2)
 463:Core/Src/ili9341.c **** 	{
 464:Core/Src/ili9341.c **** 		last = y1; 
 465:Core/Src/ili9341.c **** 	}
 466:Core/Src/ili9341.c ****     else
 467:Core/Src/ili9341.c **** 	{
 468:Core/Src/ili9341.c **** 		last = y1 - 1; 
 469:Core/Src/ili9341.c **** 	}
 470:Core/Src/ili9341.c **** 
 471:Core/Src/ili9341.c **** 	for(y = y0; y <= last; y++) 
 472:Core/Src/ili9341.c **** 	{
 473:Core/Src/ili9341.c **** 		a = x0 + sa / dy01;
 474:Core/Src/ili9341.c **** 		b = x0 + sb / dy02;
 475:Core/Src/ili9341.c **** 		sa += dx01;
 476:Core/Src/ili9341.c ****         sb += dx02;
 477:Core/Src/ili9341.c ****         if(a > b)
 478:Core/Src/ili9341.c ****         {
 479:Core/Src/ili9341.c **** 			_swap(&a,&b);
 480:Core/Src/ili9341.c **** 		}
 481:Core/Src/ili9341.c **** 		ILI9341_FillRectangle(a, y, b - a + 1, y - y + 1, color);
 482:Core/Src/ili9341.c **** 	}
 483:Core/Src/ili9341.c **** 
 484:Core/Src/ili9341.c **** 	sa = dx12 * (y - y1);
 485:Core/Src/ili9341.c **** 	sb = dx02 * (y - y0);
 486:Core/Src/ili9341.c **** 
 487:Core/Src/ili9341.c **** 	for(; y <=y2 ; y++) 
 488:Core/Src/ili9341.c **** 	{
 489:Core/Src/ili9341.c **** 		a = x1 + sa / dy12;
 490:Core/Src/ili9341.c **** 		b = x0 + sb / dy02;
 491:Core/Src/ili9341.c **** 		sa += dx12;
 492:Core/Src/ili9341.c **** 		sb += dx02;
 493:Core/Src/ili9341.c **** 		if(a > b)
 494:Core/Src/ili9341.c **** 		{
 495:Core/Src/ili9341.c **** 			_swap(&a,&b);
 496:Core/Src/ili9341.c **** 		}
 497:Core/Src/ili9341.c **** 		ILI9341_FillRectangle(a, y, b - a + 1, y - y + 1, color);
 498:Core/Src/ili9341.c **** 	}
 499:Core/Src/ili9341.c **** }
 500:Core/Src/ili9341.c **** 
 501:Core/Src/ili9341.c **** static int sqrt_t(int x)
 502:Core/Src/ili9341.c **** {
  65              		.loc 1 502 1 is_stmt 1 view -0
  66              		.cfi_startproc
  67              		@ args = 0, pretend = 0, frame = 0
  68              		@ frame_needed = 0, uses_anonymous_args = 0
  69              		.loc 1 502 1 is_stmt 0 view .LVU11
  70 0000 70B5     		push	{r4, r5, r6, lr}
  71              	.LCFI0:
ARM GAS  C:\Users\ADMINI~1\AppData\Local\Temp\cc7pslQz.s 			page 11


  72              		.cfi_def_cfa_offset 16
  73              		.cfi_offset 4, -16
  74              		.cfi_offset 5, -12
  75              		.cfi_offset 6, -8
  76              		.cfi_offset 14, -4
 503:Core/Src/ili9341.c ****     if (x == 0)
  77              		.loc 1 503 5 is_stmt 1 view .LVU12
  78              		.loc 1 503 8 is_stmt 0 view .LVU13
  79 0002 0646     		mov	r6, r0
  80 0004 18B3     		cbz	r0, .L2
 504:Core/Src/ili9341.c ****         return 0;
 505:Core/Src/ili9341.c ****     double last = 0;
 506:Core/Src/ili9341.c ****     double res = 1;
  81              		.loc 1 506 12 view .LVU14
  82 0006 0024     		movs	r4, #0
  83 0008 114D     		ldr	r5, .L8
 505:Core/Src/ili9341.c ****     double res = 1;
  84              		.loc 1 505 12 view .LVU15
  85 000a 0020     		movs	r0, #0
  86              	.LVL3:
 505:Core/Src/ili9341.c ****     double res = 1;
  87              		.loc 1 505 12 view .LVU16
  88 000c 0021     		movs	r1, #0
  89 000e 14E0     		b	.L4
  90              	.LVL4:
  91              	.L5:
 507:Core/Src/ili9341.c ****     while (res != last)
 508:Core/Src/ili9341.c ****     {
 509:Core/Src/ili9341.c ****         last = res;
  92              		.loc 1 509 9 is_stmt 1 view .LVU17
 510:Core/Src/ili9341.c ****         res = (res + x / res) / 2;
  93              		.loc 1 510 9 view .LVU18
  94              		.loc 1 510 24 is_stmt 0 view .LVU19
  95 0010 3046     		mov	r0, r6
  96 0012 FFF7FEFF 		bl	__aeabi_i2d
  97              	.LVL5:
  98 0016 2246     		mov	r2, r4
  99 0018 2B46     		mov	r3, r5
 100 001a FFF7FEFF 		bl	__aeabi_ddiv
 101              	.LVL6:
 102              		.loc 1 510 20 view .LVU20
 103 001e 2246     		mov	r2, r4
 104 0020 2B46     		mov	r3, r5
 105 0022 FFF7FEFF 		bl	__aeabi_dadd
 106              	.LVL7:
 107              		.loc 1 510 13 view .LVU21
 108 0026 0022     		movs	r2, #0
 109 0028 0A4B     		ldr	r3, .L8+4
 110 002a FFF7FEFF 		bl	__aeabi_dmul
 111              	.LVL8:
 112 002e 0246     		mov	r2, r0
 113 0030 0B46     		mov	r3, r1
 114              	.LVL9:
 509:Core/Src/ili9341.c ****         res = (res + x / res) / 2;
 115              		.loc 1 509 14 view .LVU22
 116 0032 2046     		mov	r0, r4
 117 0034 2946     		mov	r1, r5
ARM GAS  C:\Users\ADMINI~1\AppData\Local\Temp\cc7pslQz.s 			page 12


 118              		.loc 1 510 13 view .LVU23
 119 0036 1446     		mov	r4, r2
 120              	.LVL10:
 121              		.loc 1 510 13 view .LVU24
 122 0038 1D46     		mov	r5, r3
 123              	.LVL11:
 124              	.L4:
 507:Core/Src/ili9341.c ****     while (res != last)
 125              		.loc 1 507 11 is_stmt 1 view .LVU25
 126 003a 2246     		mov	r2, r4
 127 003c 2B46     		mov	r3, r5
 128 003e FFF7FEFF 		bl	__aeabi_dcmpeq
 129              	.LVL12:
 507:Core/Src/ili9341.c ****     while (res != last)
 130              		.loc 1 507 11 is_stmt 0 view .LVU26
 131 0042 0028     		cmp	r0, #0
 132 0044 E4D0     		beq	.L5
 511:Core/Src/ili9341.c ****     }
 512:Core/Src/ili9341.c ****     return (int)res;
 133              		.loc 1 512 5 is_stmt 1 view .LVU27
 134              		.loc 1 512 12 is_stmt 0 view .LVU28
 135 0046 2046     		mov	r0, r4
 136 0048 2946     		mov	r1, r5
 137 004a FFF7FEFF 		bl	__aeabi_d2iz
 138              	.LVL13:
 139              	.L2:
 513:Core/Src/ili9341.c **** }
 140              		.loc 1 513 1 view .LVU29
 141 004e 70BD     		pop	{r4, r5, r6, pc}
 142              	.LVL14:
 143              	.L9:
 144              		.loc 1 513 1 view .LVU30
 145              		.align	2
 146              	.L8:
 147 0050 0000F03F 		.word	1072693248
 148 0054 0000E03F 		.word	1071644672
 149              		.cfi_endproc
 150              	.LFE84:
 152              		.section	.text.ILI9341_Select,"ax",%progbits
 153              		.align	1
 154              		.syntax unified
 155              		.thumb
 156              		.thumb_func
 158              	ILI9341_Select:
 159              	.LFB65:
   7:Core/Src/ili9341.c ****     HAL_GPIO_WritePin(ILI9341_CS_GPIO_Port, ILI9341_CS_Pin, GPIO_PIN_RESET);
 160              		.loc 1 7 1 is_stmt 1 view -0
 161              		.cfi_startproc
 162              		@ args = 0, pretend = 0, frame = 0
 163              		@ frame_needed = 0, uses_anonymous_args = 0
 164 0000 08B5     		push	{r3, lr}
 165              	.LCFI1:
 166              		.cfi_def_cfa_offset 8
 167              		.cfi_offset 3, -8
 168              		.cfi_offset 14, -4
   8:Core/Src/ili9341.c ****     
 169              		.loc 1 8 5 view .LVU32
ARM GAS  C:\Users\ADMINI~1\AppData\Local\Temp\cc7pslQz.s 			page 13


 170 0002 0022     		movs	r2, #0
 171 0004 4FF40041 		mov	r1, #32768
 172 0008 0148     		ldr	r0, .L12
 173 000a FFF7FEFF 		bl	HAL_GPIO_WritePin
 174              	.LVL15:
  10:Core/Src/ili9341.c **** 
 175              		.loc 1 10 1 is_stmt 0 view .LVU33
 176 000e 08BD     		pop	{r3, pc}
 177              	.L13:
 178              		.align	2
 179              	.L12:
 180 0010 00080140 		.word	1073809408
 181              		.cfi_endproc
 182              	.LFE65:
 184              		.section	.text.ILI9341_Reset,"ax",%progbits
 185              		.align	1
 186              		.syntax unified
 187              		.thumb
 188              		.thumb_func
 190              	ILI9341_Reset:
 191              	.LFB67:
  18:Core/Src/ili9341.c ****     HAL_GPIO_WritePin(ILI9341_RES_GPIO_Port, ILI9341_RES_Pin, GPIO_PIN_RESET);
 192              		.loc 1 18 1 is_stmt 1 view -0
 193              		.cfi_startproc
 194              		@ args = 0, pretend = 0, frame = 0
 195              		@ frame_needed = 0, uses_anonymous_args = 0
 196 0000 10B5     		push	{r4, lr}
 197              	.LCFI2:
 198              		.cfi_def_cfa_offset 8
 199              		.cfi_offset 4, -8
 200              		.cfi_offset 14, -4
  19:Core/Src/ili9341.c ****     HAL_Delay(10);
 201              		.loc 1 19 5 view .LVU35
 202 0002 084C     		ldr	r4, .L16
 203 0004 0022     		movs	r2, #0
 204 0006 4FF48051 		mov	r1, #4096
 205 000a 2046     		mov	r0, r4
 206 000c FFF7FEFF 		bl	HAL_GPIO_WritePin
 207              	.LVL16:
  20:Core/Src/ili9341.c ****     HAL_GPIO_WritePin(ILI9341_RES_GPIO_Port, ILI9341_RES_Pin, GPIO_PIN_SET);
 208              		.loc 1 20 5 view .LVU36
 209 0010 0A20     		movs	r0, #10
 210 0012 FFF7FEFF 		bl	HAL_Delay
 211              	.LVL17:
  21:Core/Src/ili9341.c **** }
 212              		.loc 1 21 5 view .LVU37
 213 0016 0122     		movs	r2, #1
 214 0018 4FF48051 		mov	r1, #4096
 215 001c 2046     		mov	r0, r4
 216 001e FFF7FEFF 		bl	HAL_GPIO_WritePin
 217              	.LVL18:
  22:Core/Src/ili9341.c **** 
 218              		.loc 1 22 1 is_stmt 0 view .LVU38
 219 0022 10BD     		pop	{r4, pc}
 220              	.L17:
 221              		.align	2
 222              	.L16:
ARM GAS  C:\Users\ADMINI~1\AppData\Local\Temp\cc7pslQz.s 			page 14


 223 0024 00080140 		.word	1073809408
 224              		.cfi_endproc
 225              	.LFE67:
 227              		.section	.text.ILI9341_WriteCommand,"ax",%progbits
 228              		.align	1
 229              		.syntax unified
 230              		.thumb
 231              		.thumb_func
 233              	ILI9341_WriteCommand:
 234              	.LVL19:
 235              	.LFB68:
  25:Core/Src/ili9341.c ****     HAL_GPIO_WritePin(ILI9341_DC_GPIO_Port, ILI9341_DC_Pin, GPIO_PIN_RESET);
 236              		.loc 1 25 1 is_stmt 1 view -0
 237              		.cfi_startproc
 238              		@ args = 0, pretend = 0, frame = 8
 239              		@ frame_needed = 0, uses_anonymous_args = 0
  25:Core/Src/ili9341.c ****     HAL_GPIO_WritePin(ILI9341_DC_GPIO_Port, ILI9341_DC_Pin, GPIO_PIN_RESET);
 240              		.loc 1 25 1 is_stmt 0 view .LVU40
 241 0000 00B5     		push	{lr}
 242              	.LCFI3:
 243              		.cfi_def_cfa_offset 4
 244              		.cfi_offset 14, -4
 245 0002 83B0     		sub	sp, sp, #12
 246              	.LCFI4:
 247              		.cfi_def_cfa_offset 16
 248 0004 8DF80700 		strb	r0, [sp, #7]
  26:Core/Src/ili9341.c ****     HAL_SPI_Transmit(&ILI9341_SPI_PORT, &cmd, sizeof(cmd), HAL_MAX_DELAY);
 249              		.loc 1 26 5 is_stmt 1 view .LVU41
 250 0008 0022     		movs	r2, #0
 251 000a 0121     		movs	r1, #1
 252 000c 0648     		ldr	r0, .L20
 253              	.LVL20:
  26:Core/Src/ili9341.c ****     HAL_SPI_Transmit(&ILI9341_SPI_PORT, &cmd, sizeof(cmd), HAL_MAX_DELAY);
 254              		.loc 1 26 5 is_stmt 0 view .LVU42
 255 000e FFF7FEFF 		bl	HAL_GPIO_WritePin
 256              	.LVL21:
  27:Core/Src/ili9341.c **** }
 257              		.loc 1 27 5 is_stmt 1 view .LVU43
 258 0012 4FF0FF33 		mov	r3, #-1
 259 0016 0122     		movs	r2, #1
 260 0018 0DF10701 		add	r1, sp, #7
 261 001c 0348     		ldr	r0, .L20+4
 262 001e FFF7FEFF 		bl	HAL_SPI_Transmit
 263              	.LVL22:
  28:Core/Src/ili9341.c **** 
 264              		.loc 1 28 1 is_stmt 0 view .LVU44
 265 0022 03B0     		add	sp, sp, #12
 266              	.LCFI5:
 267              		.cfi_def_cfa_offset 4
 268              		@ sp needed
 269 0024 5DF804FB 		ldr	pc, [sp], #4
 270              	.L21:
 271              		.align	2
 272              	.L20:
 273 0028 000C0140 		.word	1073810432
 274 002c 00000000 		.word	hspi1
 275              		.cfi_endproc
ARM GAS  C:\Users\ADMINI~1\AppData\Local\Temp\cc7pslQz.s 			page 15


 276              	.LFE68:
 278              		.section	.text.ILI9341_WriteData,"ax",%progbits
 279              		.align	1
 280              		.syntax unified
 281              		.thumb
 282              		.thumb_func
 284              	ILI9341_WriteData:
 285              	.LVL23:
 286              	.LFB69:
  31:Core/Src/ili9341.c ****     HAL_GPIO_WritePin(ILI9341_DC_GPIO_Port, ILI9341_DC_Pin, GPIO_PIN_SET);
 287              		.loc 1 31 1 is_stmt 1 view -0
 288              		.cfi_startproc
 289              		@ args = 0, pretend = 0, frame = 0
 290              		@ frame_needed = 0, uses_anonymous_args = 0
  31:Core/Src/ili9341.c ****     HAL_GPIO_WritePin(ILI9341_DC_GPIO_Port, ILI9341_DC_Pin, GPIO_PIN_SET);
 291              		.loc 1 31 1 is_stmt 0 view .LVU46
 292 0000 70B5     		push	{r4, r5, r6, lr}
 293              	.LCFI6:
 294              		.cfi_def_cfa_offset 16
 295              		.cfi_offset 4, -16
 296              		.cfi_offset 5, -12
 297              		.cfi_offset 6, -8
 298              		.cfi_offset 14, -4
 299 0002 0646     		mov	r6, r0
 300 0004 0D46     		mov	r5, r1
  32:Core/Src/ili9341.c **** 
 301              		.loc 1 32 5 is_stmt 1 view .LVU47
 302 0006 0122     		movs	r2, #1
 303 0008 1146     		mov	r1, r2
 304              	.LVL24:
  32:Core/Src/ili9341.c **** 
 305              		.loc 1 32 5 is_stmt 0 view .LVU48
 306 000a 0B48     		ldr	r0, .L26
 307              	.LVL25:
  32:Core/Src/ili9341.c **** 
 308              		.loc 1 32 5 view .LVU49
 309 000c FFF7FEFF 		bl	HAL_GPIO_WritePin
 310              	.LVL26:
  35:Core/Src/ili9341.c ****         uint16_t chunk_size = buff_size > 32768 ? 32768 : buff_size;
 311              		.loc 1 35 5 is_stmt 1 view .LVU50
  35:Core/Src/ili9341.c ****         uint16_t chunk_size = buff_size > 32768 ? 32768 : buff_size;
 312              		.loc 1 35 10 is_stmt 0 view .LVU51
 313 0010 0FE0     		b	.L23
 314              	.L24:
 315              	.LBB2:
  36:Core/Src/ili9341.c ****         HAL_SPI_Transmit(&ILI9341_SPI_PORT, buff, chunk_size, HAL_MAX_DELAY);
 316              		.loc 1 36 9 is_stmt 1 view .LVU52
  36:Core/Src/ili9341.c ****         HAL_SPI_Transmit(&ILI9341_SPI_PORT, buff, chunk_size, HAL_MAX_DELAY);
 317              		.loc 1 36 57 is_stmt 0 view .LVU53
 318 0012 2C46     		mov	r4, r5
 319 0014 B5F5004F 		cmp	r5, #32768
 320 0018 28BF     		it	cs
 321 001a 4FF40044 		movcs	r4, #32768
  36:Core/Src/ili9341.c ****         HAL_SPI_Transmit(&ILI9341_SPI_PORT, buff, chunk_size, HAL_MAX_DELAY);
 322              		.loc 1 36 18 view .LVU54
 323 001e A4B2     		uxth	r4, r4
 324              	.LVL27:
ARM GAS  C:\Users\ADMINI~1\AppData\Local\Temp\cc7pslQz.s 			page 16


  37:Core/Src/ili9341.c ****         buff += chunk_size;
 325              		.loc 1 37 9 is_stmt 1 view .LVU55
 326 0020 4FF0FF33 		mov	r3, #-1
 327 0024 2246     		mov	r2, r4
 328 0026 3146     		mov	r1, r6
 329 0028 0448     		ldr	r0, .L26+4
 330 002a FFF7FEFF 		bl	HAL_SPI_Transmit
 331              	.LVL28:
  38:Core/Src/ili9341.c ****         buff_size -= chunk_size;
 332              		.loc 1 38 9 view .LVU56
  38:Core/Src/ili9341.c ****         buff_size -= chunk_size;
 333              		.loc 1 38 14 is_stmt 0 view .LVU57
 334 002e 2644     		add	r6, r6, r4
 335              	.LVL29:
  39:Core/Src/ili9341.c ****     }
 336              		.loc 1 39 9 is_stmt 1 view .LVU58
  39:Core/Src/ili9341.c ****     }
 337              		.loc 1 39 19 is_stmt 0 view .LVU59
 338 0030 2D1B     		subs	r5, r5, r4
 339              	.LVL30:
 340              	.L23:
  39:Core/Src/ili9341.c ****     }
 341              		.loc 1 39 19 view .LVU60
 342              	.LBE2:
  35:Core/Src/ili9341.c ****         uint16_t chunk_size = buff_size > 32768 ? 32768 : buff_size;
 343              		.loc 1 35 10 is_stmt 1 view .LVU61
 344 0032 002D     		cmp	r5, #0
 345 0034 EDD1     		bne	.L24
  41:Core/Src/ili9341.c **** 
 346              		.loc 1 41 1 is_stmt 0 view .LVU62
 347 0036 70BD     		pop	{r4, r5, r6, pc}
 348              	.LVL31:
 349              	.L27:
  41:Core/Src/ili9341.c **** 
 350              		.loc 1 41 1 view .LVU63
 351              		.align	2
 352              	.L26:
 353 0038 000C0140 		.word	1073810432
 354 003c 00000000 		.word	hspi1
 355              		.cfi_endproc
 356              	.LFE69:
 358              		.section	.text.ILI9341_SetAddressWindow,"ax",%progbits
 359              		.align	1
 360              		.syntax unified
 361              		.thumb
 362              		.thumb_func
 364              	ILI9341_SetAddressWindow:
 365              	.LVL32:
 366              	.LFB70:
  44:Core/Src/ili9341.c ****     // column address set
 367              		.loc 1 44 1 is_stmt 1 view -0
 368              		.cfi_startproc
 369              		@ args = 0, pretend = 0, frame = 8
 370              		@ frame_needed = 0, uses_anonymous_args = 0
  44:Core/Src/ili9341.c ****     // column address set
 371              		.loc 1 44 1 is_stmt 0 view .LVU65
 372 0000 F0B5     		push	{r4, r5, r6, r7, lr}
ARM GAS  C:\Users\ADMINI~1\AppData\Local\Temp\cc7pslQz.s 			page 17


 373              	.LCFI7:
 374              		.cfi_def_cfa_offset 20
 375              		.cfi_offset 4, -20
 376              		.cfi_offset 5, -16
 377              		.cfi_offset 6, -12
 378              		.cfi_offset 7, -8
 379              		.cfi_offset 14, -4
 380 0002 83B0     		sub	sp, sp, #12
 381              	.LCFI8:
 382              		.cfi_def_cfa_offset 32
 383 0004 0746     		mov	r7, r0
 384 0006 0D46     		mov	r5, r1
 385 0008 1646     		mov	r6, r2
 386 000a 1C46     		mov	r4, r3
  46:Core/Src/ili9341.c ****     {
 387              		.loc 1 46 5 is_stmt 1 view .LVU66
 388 000c 2A20     		movs	r0, #42
 389              	.LVL33:
  46:Core/Src/ili9341.c ****     {
 390              		.loc 1 46 5 is_stmt 0 view .LVU67
 391 000e FFF7FEFF 		bl	ILI9341_WriteCommand
 392              	.LVL34:
 393              	.LBB3:
  48:Core/Src/ili9341.c ****         ILI9341_WriteData(data, sizeof(data));
 394              		.loc 1 48 9 is_stmt 1 view .LVU68
  48:Core/Src/ili9341.c ****         ILI9341_WriteData(data, sizeof(data));
 395              		.loc 1 48 17 is_stmt 0 view .LVU69
 396 0012 3B0A     		lsrs	r3, r7, #8
 397 0014 8DF80430 		strb	r3, [sp, #4]
 398 0018 8DF80570 		strb	r7, [sp, #5]
 399 001c 330A     		lsrs	r3, r6, #8
 400 001e 8DF80630 		strb	r3, [sp, #6]
 401 0022 8DF80760 		strb	r6, [sp, #7]
  49:Core/Src/ili9341.c ****     }
 402              		.loc 1 49 9 is_stmt 1 view .LVU70
 403 0026 0421     		movs	r1, #4
 404 0028 0DEB0100 		add	r0, sp, r1
 405 002c FFF7FEFF 		bl	ILI9341_WriteData
 406              	.LVL35:
 407              	.LBE3:
  53:Core/Src/ili9341.c ****     {
 408              		.loc 1 53 5 view .LVU71
 409 0030 2B20     		movs	r0, #43
 410 0032 FFF7FEFF 		bl	ILI9341_WriteCommand
 411              	.LVL36:
 412              	.LBB4:
  55:Core/Src/ili9341.c ****         ILI9341_WriteData(data, sizeof(data));
 413              		.loc 1 55 9 view .LVU72
  55:Core/Src/ili9341.c ****         ILI9341_WriteData(data, sizeof(data));
 414              		.loc 1 55 17 is_stmt 0 view .LVU73
 415 0036 2B0A     		lsrs	r3, r5, #8
 416 0038 8DF80430 		strb	r3, [sp, #4]
 417 003c 8DF80550 		strb	r5, [sp, #5]
 418 0040 230A     		lsrs	r3, r4, #8
 419 0042 8DF80630 		strb	r3, [sp, #6]
 420 0046 8DF80740 		strb	r4, [sp, #7]
  56:Core/Src/ili9341.c ****     }
ARM GAS  C:\Users\ADMINI~1\AppData\Local\Temp\cc7pslQz.s 			page 18


 421              		.loc 1 56 9 is_stmt 1 view .LVU74
 422 004a 0421     		movs	r1, #4
 423 004c 0DEB0100 		add	r0, sp, r1
 424 0050 FFF7FEFF 		bl	ILI9341_WriteData
 425              	.LVL37:
 426              	.LBE4:
  60:Core/Src/ili9341.c **** }
 427              		.loc 1 60 5 view .LVU75
 428 0054 2C20     		movs	r0, #44
 429 0056 FFF7FEFF 		bl	ILI9341_WriteCommand
 430              	.LVL38:
  61:Core/Src/ili9341.c **** 
 431              		.loc 1 61 1 is_stmt 0 view .LVU76
 432 005a 03B0     		add	sp, sp, #12
 433              	.LCFI9:
 434              		.cfi_def_cfa_offset 20
 435              		@ sp needed
 436 005c F0BD     		pop	{r4, r5, r6, r7, pc}
 437              		.cfi_endproc
 438              	.LFE70:
 440              		.section	.text.ILI9341_WriteChar,"ax",%progbits
 441              		.align	1
 442              		.syntax unified
 443              		.thumb
 444              		.thumb_func
 446              	ILI9341_WriteChar:
 447              	.LVL39:
 448              	.LFB74:
 292:Core/Src/ili9341.c ****     uint32_t i, b, j;
 449              		.loc 1 292 1 is_stmt 1 view -0
 450              		.cfi_startproc
 451              		@ args = 20, pretend = 8, frame = 8
 452              		@ frame_needed = 0, uses_anonymous_args = 0
 292:Core/Src/ili9341.c ****     uint32_t i, b, j;
 453              		.loc 1 292 1 is_stmt 0 view .LVU78
 454 0000 82B0     		sub	sp, sp, #8
 455              	.LCFI10:
 456              		.cfi_def_cfa_offset 8
 457 0002 2DE9F04F 		push	{r4, r5, r6, r7, r8, r9, r10, fp, lr}
 458              	.LCFI11:
 459              		.cfi_def_cfa_offset 44
 460              		.cfi_offset 4, -44
 461              		.cfi_offset 5, -40
 462              		.cfi_offset 6, -36
 463              		.cfi_offset 7, -32
 464              		.cfi_offset 8, -28
 465              		.cfi_offset 9, -24
 466              		.cfi_offset 10, -20
 467              		.cfi_offset 11, -16
 468              		.cfi_offset 14, -12
 469 0006 83B0     		sub	sp, sp, #12
 470              	.LCFI12:
 471              		.cfi_def_cfa_offset 56
 472 0008 9346     		mov	fp, r2
 473 000a 0D93     		str	r3, [sp, #52]
 474 000c BDF83C80 		ldrh	r8, [sp, #60]
 475 0010 BDF84070 		ldrh	r7, [sp, #64]
ARM GAS  C:\Users\ADMINI~1\AppData\Local\Temp\cc7pslQz.s 			page 19


 293:Core/Src/ili9341.c **** 
 476              		.loc 1 293 5 is_stmt 1 view .LVU79
 295:Core/Src/ili9341.c **** 
 477              		.loc 1 295 5 view .LVU80
 295:Core/Src/ili9341.c **** 
 478              		.loc 1 295 42 is_stmt 0 view .LVU81
 479 0014 9DF83450 		ldrb	r5, [sp, #52]	@ zero_extendqisi2
 295:Core/Src/ili9341.c **** 
 480              		.loc 1 295 37 view .LVU82
 481 0018 2A18     		adds	r2, r5, r0
 482              	.LVL40:
 295:Core/Src/ili9341.c **** 
 483              		.loc 1 295 37 view .LVU83
 484 001a 92B2     		uxth	r2, r2
 295:Core/Src/ili9341.c **** 
 485              		.loc 1 295 58 view .LVU84
 486 001c 9DF835A0 		ldrb	r10, [sp, #53]	@ zero_extendqisi2
 295:Core/Src/ili9341.c **** 
 487              		.loc 1 295 53 view .LVU85
 488 0020 0AEB0103 		add	r3, r10, r1
 489 0024 9BB2     		uxth	r3, r3
 295:Core/Src/ili9341.c **** 
 490              		.loc 1 295 5 view .LVU86
 491 0026 013B     		subs	r3, r3, #1
 492 0028 013A     		subs	r2, r2, #1
 493 002a 9BB2     		uxth	r3, r3
 494 002c 92B2     		uxth	r2, r2
 495 002e FFF7FEFF 		bl	ILI9341_SetAddressWindow
 496              	.LVL41:
 297:Core/Src/ili9341.c ****         b = font.data[(ch - 32) * font.height + i];
 497              		.loc 1 297 5 is_stmt 1 view .LVU87
 297:Core/Src/ili9341.c ****         b = font.data[(ch - 32) * font.height + i];
 498              		.loc 1 297 11 is_stmt 0 view .LVU88
 499 0032 4FF00009 		mov	r9, #0
 297:Core/Src/ili9341.c ****         b = font.data[(ch - 32) * font.height + i];
 500              		.loc 1 297 5 view .LVU89
 501 0036 1DE0     		b	.L31
 502              	.LVL42:
 503              	.L33:
 504              	.LBB5:
 304:Core/Src/ili9341.c ****                 ILI9341_WriteData(data, sizeof(data));
 505              		.loc 1 304 17 is_stmt 1 view .LVU90
 304:Core/Src/ili9341.c ****                 ILI9341_WriteData(data, sizeof(data));
 506              		.loc 1 304 25 is_stmt 0 view .LVU91
 507 0038 3B0A     		lsrs	r3, r7, #8
 508 003a 8DF80430 		strb	r3, [sp, #4]
 509 003e 8DF80570 		strb	r7, [sp, #5]
 305:Core/Src/ili9341.c ****             }
 510              		.loc 1 305 17 is_stmt 1 view .LVU92
 511 0042 0221     		movs	r1, #2
 512 0044 01A8     		add	r0, sp, #4
 513 0046 FFF7FEFF 		bl	ILI9341_WriteData
 514              	.LVL43:
 515              	.L34:
 305:Core/Src/ili9341.c ****             }
 516              		.loc 1 305 17 is_stmt 0 view .LVU93
 517              	.LBE5:
ARM GAS  C:\Users\ADMINI~1\AppData\Local\Temp\cc7pslQz.s 			page 20


 299:Core/Src/ili9341.c ****             if((b << j) & 0x8000)  {
 518              		.loc 1 299 36 is_stmt 1 discriminator 2 view .LVU94
 299:Core/Src/ili9341.c ****             if((b << j) & 0x8000)  {
 519              		.loc 1 299 37 is_stmt 0 discriminator 2 view .LVU95
 520 004a 0134     		adds	r4, r4, #1
 521              	.LVL44:
 522              	.L32:
 299:Core/Src/ili9341.c ****             if((b << j) & 0x8000)  {
 523              		.loc 1 299 20 is_stmt 1 discriminator 1 view .LVU96
 299:Core/Src/ili9341.c ****             if((b << j) & 0x8000)  {
 524              		.loc 1 299 9 is_stmt 0 discriminator 1 view .LVU97
 525 004c A542     		cmp	r5, r4
 526 004e 0FD9     		bls	.L38
 300:Core/Src/ili9341.c ****                 uint8_t data[] = { color >> 8, color & 0xFF };
 527              		.loc 1 300 13 is_stmt 1 view .LVU98
 300:Core/Src/ili9341.c ****                 uint8_t data[] = { color >> 8, color & 0xFF };
 528              		.loc 1 300 19 is_stmt 0 view .LVU99
 529 0050 06FA04F3 		lsl	r3, r6, r4
 300:Core/Src/ili9341.c ****                 uint8_t data[] = { color >> 8, color & 0xFF };
 530              		.loc 1 300 15 view .LVU100
 531 0054 13F4004F 		tst	r3, #32768
 532 0058 EED0     		beq	.L33
 533              	.LBB6:
 301:Core/Src/ili9341.c ****                 ILI9341_WriteData(data, sizeof(data));
 534              		.loc 1 301 17 is_stmt 1 view .LVU101
 301:Core/Src/ili9341.c ****                 ILI9341_WriteData(data, sizeof(data));
 535              		.loc 1 301 25 is_stmt 0 view .LVU102
 536 005a 4FEA1823 		lsr	r3, r8, #8
 537 005e 8DF80430 		strb	r3, [sp, #4]
 538 0062 8DF80580 		strb	r8, [sp, #5]
 302:Core/Src/ili9341.c ****             } else {
 539              		.loc 1 302 17 is_stmt 1 view .LVU103
 540 0066 0221     		movs	r1, #2
 541 0068 01A8     		add	r0, sp, #4
 542 006a FFF7FEFF 		bl	ILI9341_WriteData
 543              	.LVL45:
 544              	.LBE6:
 545 006e ECE7     		b	.L34
 546              	.L38:
 297:Core/Src/ili9341.c ****         b = font.data[(ch - 32) * font.height + i];
 547              		.loc 1 297 33 discriminator 2 view .LVU104
 297:Core/Src/ili9341.c ****         b = font.data[(ch - 32) * font.height + i];
 548              		.loc 1 297 34 is_stmt 0 discriminator 2 view .LVU105
 549 0070 09F10109 		add	r9, r9, #1
 550              	.LVL46:
 551              	.L31:
 297:Core/Src/ili9341.c ****         b = font.data[(ch - 32) * font.height + i];
 552              		.loc 1 297 16 is_stmt 1 discriminator 1 view .LVU106
 297:Core/Src/ili9341.c ****         b = font.data[(ch - 32) * font.height + i];
 553              		.loc 1 297 5 is_stmt 0 discriminator 1 view .LVU107
 554 0074 CA45     		cmp	r10, r9
 555 0076 08D9     		bls	.L39
 298:Core/Src/ili9341.c ****         for(j = 0; j < font.width; j++) {
 556              		.loc 1 298 9 is_stmt 1 view .LVU108
 298:Core/Src/ili9341.c ****         for(j = 0; j < font.width; j++) {
 557              		.loc 1 298 27 is_stmt 0 view .LVU109
 558 0078 ABF12003 		sub	r3, fp, #32
ARM GAS  C:\Users\ADMINI~1\AppData\Local\Temp\cc7pslQz.s 			page 21


 298:Core/Src/ili9341.c ****         for(j = 0; j < font.width; j++) {
 559              		.loc 1 298 47 view .LVU110
 560 007c 0AFB0393 		mla	r3, r10, r3, r9
 298:Core/Src/ili9341.c ****         for(j = 0; j < font.width; j++) {
 561              		.loc 1 298 22 view .LVU111
 562 0080 0E9A     		ldr	r2, [sp, #56]
 563 0082 32F81360 		ldrh	r6, [r2, r3, lsl #1]
 564              	.LVL47:
 299:Core/Src/ili9341.c ****             if((b << j) & 0x8000)  {
 565              		.loc 1 299 9 is_stmt 1 view .LVU112
 299:Core/Src/ili9341.c ****             if((b << j) & 0x8000)  {
 566              		.loc 1 299 15 is_stmt 0 view .LVU113
 567 0086 0024     		movs	r4, #0
 299:Core/Src/ili9341.c ****             if((b << j) & 0x8000)  {
 568              		.loc 1 299 9 view .LVU114
 569 0088 E0E7     		b	.L32
 570              	.LVL48:
 571              	.L39:
 309:Core/Src/ili9341.c **** 
 572              		.loc 1 309 1 view .LVU115
 573 008a 03B0     		add	sp, sp, #12
 574              	.LCFI13:
 575              		.cfi_def_cfa_offset 44
 576              		@ sp needed
 577 008c BDE8F04F 		pop	{r4, r5, r6, r7, r8, r9, r10, fp, lr}
 578              	.LCFI14:
 579              		.cfi_restore 14
 580              		.cfi_restore 11
 581              		.cfi_restore 10
 582              		.cfi_restore 9
 583              		.cfi_restore 8
 584              		.cfi_restore 7
 585              		.cfi_restore 6
 586              		.cfi_restore 5
 587              		.cfi_restore 4
 588              		.cfi_def_cfa_offset 8
 589              	.LVL49:
 309:Core/Src/ili9341.c **** 
 590              		.loc 1 309 1 view .LVU116
 591 0090 02B0     		add	sp, sp, #8
 592              	.LCFI15:
 593              		.cfi_def_cfa_offset 0
 594 0092 7047     		bx	lr
 595              		.cfi_endproc
 596              	.LFE74:
 598              		.section	.text.ILI9341_Unselect,"ax",%progbits
 599              		.align	1
 600              		.global	ILI9341_Unselect
 601              		.syntax unified
 602              		.thumb
 603              		.thumb_func
 605              	ILI9341_Unselect:
 606              	.LFB66:
  13:Core/Src/ili9341.c ****     HAL_GPIO_WritePin(ILI9341_CS_GPIO_Port, ILI9341_CS_Pin, GPIO_PIN_SET);
 607              		.loc 1 13 1 is_stmt 1 view -0
 608              		.cfi_startproc
 609              		@ args = 0, pretend = 0, frame = 0
ARM GAS  C:\Users\ADMINI~1\AppData\Local\Temp\cc7pslQz.s 			page 22


 610              		@ frame_needed = 0, uses_anonymous_args = 0
 611 0000 08B5     		push	{r3, lr}
 612              	.LCFI16:
 613              		.cfi_def_cfa_offset 8
 614              		.cfi_offset 3, -8
 615              		.cfi_offset 14, -4
  14:Core/Src/ili9341.c **** }
 616              		.loc 1 14 5 view .LVU118
 617 0002 0122     		movs	r2, #1
 618 0004 4FF40041 		mov	r1, #32768
 619 0008 0148     		ldr	r0, .L42
 620 000a FFF7FEFF 		bl	HAL_GPIO_WritePin
 621              	.LVL50:
  15:Core/Src/ili9341.c **** 
 622              		.loc 1 15 1 is_stmt 0 view .LVU119
 623 000e 08BD     		pop	{r3, pc}
 624              	.L43:
 625              		.align	2
 626              	.L42:
 627 0010 00080140 		.word	1073809408
 628              		.cfi_endproc
 629              	.LFE66:
 631              		.section	.rodata.ILI9341_Init.str1.4,"aMS",%progbits,1
 632              		.align	2
 633              	.LC3:
 634 0000 08822700 		.ascii	"\010\202'\000"
 635              		.align	2
 636              	.LC4:
 637 0004 0F312B0C 		.ascii	"\0171+\014\016\010N\3617\007\020\003\016\011\000"
 637      0E084EF1 
 637      37071003 
 637      0E0900
 638              		.section	.text.ILI9341_Init,"ax",%progbits
 639              		.align	1
 640              		.global	ILI9341_Init
 641              		.syntax unified
 642              		.thumb
 643              		.thumb_func
 645              	ILI9341_Init:
 646              	.LFB71:
  64:Core/Src/ili9341.c ****     ILI9341_Select();
 647              		.loc 1 64 1 is_stmt 1 view -0
 648              		.cfi_startproc
 649              		@ args = 0, pretend = 0, frame = 16
 650              		@ frame_needed = 0, uses_anonymous_args = 0
 651 0000 30B5     		push	{r4, r5, lr}
 652              	.LCFI17:
 653              		.cfi_def_cfa_offset 12
 654              		.cfi_offset 4, -12
 655              		.cfi_offset 5, -8
 656              		.cfi_offset 14, -4
 657 0002 85B0     		sub	sp, sp, #20
 658              	.LCFI18:
 659              		.cfi_def_cfa_offset 32
  65:Core/Src/ili9341.c ****     ILI9341_Reset();
 660              		.loc 1 65 5 view .LVU121
 661 0004 FFF7FEFF 		bl	ILI9341_Select
ARM GAS  C:\Users\ADMINI~1\AppData\Local\Temp\cc7pslQz.s 			page 23


 662              	.LVL51:
  66:Core/Src/ili9341.c **** 
 663              		.loc 1 66 5 view .LVU122
 664 0008 FFF7FEFF 		bl	ILI9341_Reset
 665              	.LVL52:
  71:Core/Src/ili9341.c ****     HAL_Delay(1000);
 666              		.loc 1 71 5 view .LVU123
 667 000c 0120     		movs	r0, #1
 668 000e FFF7FEFF 		bl	ILI9341_WriteCommand
 669              	.LVL53:
  72:Core/Src/ili9341.c ****         
 670              		.loc 1 72 5 view .LVU124
 671 0012 4FF47A70 		mov	r0, #1000
 672 0016 FFF7FEFF 		bl	HAL_Delay
 673              	.LVL54:
  75:Core/Src/ili9341.c ****     {
 674              		.loc 1 75 5 view .LVU125
 675 001a CB20     		movs	r0, #203
 676 001c FFF7FEFF 		bl	ILI9341_WriteCommand
 677              	.LVL55:
 678              	.LBB7:
  77:Core/Src/ili9341.c ****         ILI9341_WriteData(data, sizeof(data));
 679              		.loc 1 77 9 view .LVU126
  77:Core/Src/ili9341.c ****         ILI9341_WriteData(data, sizeof(data));
 680              		.loc 1 77 17 is_stmt 0 view .LVU127
 681 0020 744C     		ldr	r4, .L46
 682 0022 94E80300 		ldm	r4, {r0, r1}
 683 0026 0090     		str	r0, [sp]
 684 0028 8DF80410 		strb	r1, [sp, #4]
  78:Core/Src/ili9341.c ****     }
 685              		.loc 1 78 9 is_stmt 1 view .LVU128
 686 002c 0521     		movs	r1, #5
 687 002e 6846     		mov	r0, sp
 688 0030 FFF7FEFF 		bl	ILI9341_WriteData
 689              	.LVL56:
 690              	.LBE7:
  82:Core/Src/ili9341.c ****     {
 691              		.loc 1 82 5 view .LVU129
 692 0034 CF20     		movs	r0, #207
 693 0036 FFF7FEFF 		bl	ILI9341_WriteCommand
 694              	.LVL57:
 695              	.LBB8:
  84:Core/Src/ili9341.c ****         ILI9341_WriteData(data, sizeof(data));
 696              		.loc 1 84 9 view .LVU130
  84:Core/Src/ili9341.c ****         ILI9341_WriteData(data, sizeof(data));
 697              		.loc 1 84 17 is_stmt 0 view .LVU131
 698 003a A368     		ldr	r3, [r4, #8]
 699 003c ADF80030 		strh	r3, [sp]	@ movhi
 700 0040 1B0C     		lsrs	r3, r3, #16
 701 0042 8DF80230 		strb	r3, [sp, #2]
  85:Core/Src/ili9341.c ****     }
 702              		.loc 1 85 9 is_stmt 1 view .LVU132
 703 0046 0321     		movs	r1, #3
 704 0048 6846     		mov	r0, sp
 705 004a FFF7FEFF 		bl	ILI9341_WriteData
 706              	.LVL58:
 707              	.LBE8:
ARM GAS  C:\Users\ADMINI~1\AppData\Local\Temp\cc7pslQz.s 			page 24


  89:Core/Src/ili9341.c ****     {
 708              		.loc 1 89 5 view .LVU133
 709 004e E820     		movs	r0, #232
 710 0050 FFF7FEFF 		bl	ILI9341_WriteCommand
 711              	.LVL59:
 712              	.LBB9:
  91:Core/Src/ili9341.c ****         ILI9341_WriteData(data, sizeof(data));
 713              		.loc 1 91 9 view .LVU134
  91:Core/Src/ili9341.c ****         ILI9341_WriteData(data, sizeof(data));
 714              		.loc 1 91 17 is_stmt 0 view .LVU135
 715 0054 E368     		ldr	r3, [r4, #12]
 716 0056 ADF80030 		strh	r3, [sp]	@ movhi
 717 005a 1B0C     		lsrs	r3, r3, #16
 718 005c 8DF80230 		strb	r3, [sp, #2]
  92:Core/Src/ili9341.c ****     }
 719              		.loc 1 92 9 is_stmt 1 view .LVU136
 720 0060 0321     		movs	r1, #3
 721 0062 6846     		mov	r0, sp
 722 0064 FFF7FEFF 		bl	ILI9341_WriteData
 723              	.LVL60:
 724              	.LBE9:
  96:Core/Src/ili9341.c ****     {
 725              		.loc 1 96 5 view .LVU137
 726 0068 EA20     		movs	r0, #234
 727 006a FFF7FEFF 		bl	ILI9341_WriteCommand
 728              	.LVL61:
 729              	.LBB10:
  98:Core/Src/ili9341.c ****         ILI9341_WriteData(data, sizeof(data));
 730              		.loc 1 98 9 view .LVU138
  98:Core/Src/ili9341.c ****         ILI9341_WriteData(data, sizeof(data));
 731              		.loc 1 98 17 is_stmt 0 view .LVU139
 732 006e 0025     		movs	r5, #0
 733 0070 ADF80050 		strh	r5, [sp]	@ movhi
  99:Core/Src/ili9341.c ****     }
 734              		.loc 1 99 9 is_stmt 1 view .LVU140
 735 0074 0221     		movs	r1, #2
 736 0076 6846     		mov	r0, sp
 737 0078 FFF7FEFF 		bl	ILI9341_WriteData
 738              	.LVL62:
 739              	.LBE10:
 103:Core/Src/ili9341.c ****     {
 740              		.loc 1 103 5 view .LVU141
 741 007c ED20     		movs	r0, #237
 742 007e FFF7FEFF 		bl	ILI9341_WriteCommand
 743              	.LVL63:
 744              	.LBB11:
 105:Core/Src/ili9341.c ****         ILI9341_WriteData(data, sizeof(data));
 745              		.loc 1 105 9 view .LVU142
 105:Core/Src/ili9341.c ****         ILI9341_WriteData(data, sizeof(data));
 746              		.loc 1 105 17 is_stmt 0 view .LVU143
 747 0082 5D4B     		ldr	r3, .L46+4
 748 0084 0093     		str	r3, [sp]
 106:Core/Src/ili9341.c ****     }
 749              		.loc 1 106 9 is_stmt 1 view .LVU144
 750 0086 0421     		movs	r1, #4
 751 0088 6846     		mov	r0, sp
 752 008a FFF7FEFF 		bl	ILI9341_WriteData
ARM GAS  C:\Users\ADMINI~1\AppData\Local\Temp\cc7pslQz.s 			page 25


 753              	.LVL64:
 754              	.LBE11:
 110:Core/Src/ili9341.c ****     {
 755              		.loc 1 110 5 view .LVU145
 756 008e F720     		movs	r0, #247
 757 0090 FFF7FEFF 		bl	ILI9341_WriteCommand
 758              	.LVL65:
 759              	.LBB12:
 112:Core/Src/ili9341.c ****         ILI9341_WriteData(data, sizeof(data));
 760              		.loc 1 112 9 view .LVU146
 112:Core/Src/ili9341.c ****         ILI9341_WriteData(data, sizeof(data));
 761              		.loc 1 112 17 is_stmt 0 view .LVU147
 762 0094 2023     		movs	r3, #32
 763 0096 8DF80030 		strb	r3, [sp]
 113:Core/Src/ili9341.c ****     }
 764              		.loc 1 113 9 is_stmt 1 view .LVU148
 765 009a 0121     		movs	r1, #1
 766 009c 6846     		mov	r0, sp
 767 009e FFF7FEFF 		bl	ILI9341_WriteData
 768              	.LVL66:
 769              	.LBE12:
 117:Core/Src/ili9341.c ****     {
 770              		.loc 1 117 5 view .LVU149
 771 00a2 C020     		movs	r0, #192
 772 00a4 FFF7FEFF 		bl	ILI9341_WriteCommand
 773              	.LVL67:
 774              	.LBB13:
 119:Core/Src/ili9341.c ****         ILI9341_WriteData(data, sizeof(data));
 775              		.loc 1 119 9 view .LVU150
 119:Core/Src/ili9341.c ****         ILI9341_WriteData(data, sizeof(data));
 776              		.loc 1 119 17 is_stmt 0 view .LVU151
 777 00a8 2323     		movs	r3, #35
 778 00aa 8DF80030 		strb	r3, [sp]
 120:Core/Src/ili9341.c ****     }
 779              		.loc 1 120 9 is_stmt 1 view .LVU152
 780 00ae 0121     		movs	r1, #1
 781 00b0 6846     		mov	r0, sp
 782 00b2 FFF7FEFF 		bl	ILI9341_WriteData
 783              	.LVL68:
 784              	.LBE13:
 124:Core/Src/ili9341.c ****     {
 785              		.loc 1 124 5 view .LVU153
 786 00b6 C120     		movs	r0, #193
 787 00b8 FFF7FEFF 		bl	ILI9341_WriteCommand
 788              	.LVL69:
 789              	.LBB14:
 126:Core/Src/ili9341.c ****         ILI9341_WriteData(data, sizeof(data));
 790              		.loc 1 126 9 view .LVU154
 126:Core/Src/ili9341.c ****         ILI9341_WriteData(data, sizeof(data));
 791              		.loc 1 126 17 is_stmt 0 view .LVU155
 792 00bc 1023     		movs	r3, #16
 793 00be 8DF80030 		strb	r3, [sp]
 127:Core/Src/ili9341.c ****     }
 794              		.loc 1 127 9 is_stmt 1 view .LVU156
 795 00c2 0121     		movs	r1, #1
 796 00c4 6846     		mov	r0, sp
 797 00c6 FFF7FEFF 		bl	ILI9341_WriteData
ARM GAS  C:\Users\ADMINI~1\AppData\Local\Temp\cc7pslQz.s 			page 26


 798              	.LVL70:
 799              	.LBE14:
 131:Core/Src/ili9341.c ****     {
 800              		.loc 1 131 5 view .LVU157
 801 00ca C520     		movs	r0, #197
 802 00cc FFF7FEFF 		bl	ILI9341_WriteCommand
 803              	.LVL71:
 804              	.LBB15:
 133:Core/Src/ili9341.c ****         ILI9341_WriteData(data, sizeof(data));
 805              		.loc 1 133 9 view .LVU158
 133:Core/Src/ili9341.c ****         ILI9341_WriteData(data, sizeof(data));
 806              		.loc 1 133 17 is_stmt 0 view .LVU159
 807 00d0 42F63E03 		movw	r3, #10302
 808 00d4 ADF80030 		strh	r3, [sp]	@ movhi
 134:Core/Src/ili9341.c ****     }
 809              		.loc 1 134 9 is_stmt 1 view .LVU160
 810 00d8 0221     		movs	r1, #2
 811 00da 6846     		mov	r0, sp
 812 00dc FFF7FEFF 		bl	ILI9341_WriteData
 813              	.LVL72:
 814              	.LBE15:
 138:Core/Src/ili9341.c ****     {
 815              		.loc 1 138 5 view .LVU161
 816 00e0 C720     		movs	r0, #199
 817 00e2 FFF7FEFF 		bl	ILI9341_WriteCommand
 818              	.LVL73:
 819              	.LBB16:
 140:Core/Src/ili9341.c ****         ILI9341_WriteData(data, sizeof(data));
 820              		.loc 1 140 9 view .LVU162
 140:Core/Src/ili9341.c ****         ILI9341_WriteData(data, sizeof(data));
 821              		.loc 1 140 17 is_stmt 0 view .LVU163
 822 00e6 8623     		movs	r3, #134
 823 00e8 8DF80030 		strb	r3, [sp]
 141:Core/Src/ili9341.c ****     }
 824              		.loc 1 141 9 is_stmt 1 view .LVU164
 825 00ec 0121     		movs	r1, #1
 826 00ee 6846     		mov	r0, sp
 827 00f0 FFF7FEFF 		bl	ILI9341_WriteData
 828              	.LVL74:
 829              	.LBE16:
 145:Core/Src/ili9341.c ****     {
 830              		.loc 1 145 5 view .LVU165
 831 00f4 3620     		movs	r0, #54
 832 00f6 FFF7FEFF 		bl	ILI9341_WriteCommand
 833              	.LVL75:
 834              	.LBB17:
 147:Core/Src/ili9341.c ****         ILI9341_WriteData(data, sizeof(data));
 835              		.loc 1 147 9 view .LVU166
 147:Core/Src/ili9341.c ****         ILI9341_WriteData(data, sizeof(data));
 836              		.loc 1 147 17 is_stmt 0 view .LVU167
 837 00fa 4823     		movs	r3, #72
 838 00fc 8DF80030 		strb	r3, [sp]
 148:Core/Src/ili9341.c ****     }
 839              		.loc 1 148 9 is_stmt 1 view .LVU168
 840 0100 0121     		movs	r1, #1
 841 0102 6846     		mov	r0, sp
 842 0104 FFF7FEFF 		bl	ILI9341_WriteData
ARM GAS  C:\Users\ADMINI~1\AppData\Local\Temp\cc7pslQz.s 			page 27


 843              	.LVL76:
 844              	.LBE17:
 152:Core/Src/ili9341.c ****     {
 845              		.loc 1 152 5 view .LVU169
 846 0108 3A20     		movs	r0, #58
 847 010a FFF7FEFF 		bl	ILI9341_WriteCommand
 848              	.LVL77:
 849              	.LBB18:
 154:Core/Src/ili9341.c ****         ILI9341_WriteData(data, sizeof(data));
 850              		.loc 1 154 9 view .LVU170
 154:Core/Src/ili9341.c ****         ILI9341_WriteData(data, sizeof(data));
 851              		.loc 1 154 17 is_stmt 0 view .LVU171
 852 010e 5523     		movs	r3, #85
 853 0110 8DF80030 		strb	r3, [sp]
 155:Core/Src/ili9341.c ****     }
 854              		.loc 1 155 9 is_stmt 1 view .LVU172
 855 0114 0121     		movs	r1, #1
 856 0116 6846     		mov	r0, sp
 857 0118 FFF7FEFF 		bl	ILI9341_WriteData
 858              	.LVL78:
 859              	.LBE18:
 159:Core/Src/ili9341.c ****     {
 860              		.loc 1 159 5 view .LVU173
 861 011c B120     		movs	r0, #177
 862 011e FFF7FEFF 		bl	ILI9341_WriteCommand
 863              	.LVL79:
 864              	.LBB19:
 161:Core/Src/ili9341.c ****         ILI9341_WriteData(data, sizeof(data));
 865              		.loc 1 161 9 view .LVU174
 161:Core/Src/ili9341.c ****         ILI9341_WriteData(data, sizeof(data));
 866              		.loc 1 161 17 is_stmt 0 view .LVU175
 867 0122 4FF4C053 		mov	r3, #6144
 868 0126 ADF80030 		strh	r3, [sp]	@ movhi
 162:Core/Src/ili9341.c ****     }
 869              		.loc 1 162 9 is_stmt 1 view .LVU176
 870 012a 0221     		movs	r1, #2
 871 012c 6846     		mov	r0, sp
 872 012e FFF7FEFF 		bl	ILI9341_WriteData
 873              	.LVL80:
 874              	.LBE19:
 166:Core/Src/ili9341.c ****     {
 875              		.loc 1 166 5 view .LVU177
 876 0132 B620     		movs	r0, #182
 877 0134 FFF7FEFF 		bl	ILI9341_WriteCommand
 878              	.LVL81:
 879              	.LBB20:
 168:Core/Src/ili9341.c ****         ILI9341_WriteData(data, sizeof(data));
 880              		.loc 1 168 9 view .LVU178
 168:Core/Src/ili9341.c ****         ILI9341_WriteData(data, sizeof(data));
 881              		.loc 1 168 17 is_stmt 0 view .LVU179
 882 0138 304B     		ldr	r3, .L46+8
 883 013a 1B68     		ldr	r3, [r3]
 884 013c ADF80030 		strh	r3, [sp]	@ movhi
 885 0140 1B0C     		lsrs	r3, r3, #16
 886 0142 8DF80230 		strb	r3, [sp, #2]
 169:Core/Src/ili9341.c ****     }
 887              		.loc 1 169 9 is_stmt 1 view .LVU180
ARM GAS  C:\Users\ADMINI~1\AppData\Local\Temp\cc7pslQz.s 			page 28


 888 0146 0321     		movs	r1, #3
 889 0148 6846     		mov	r0, sp
 890 014a FFF7FEFF 		bl	ILI9341_WriteData
 891              	.LVL82:
 892              	.LBE20:
 173:Core/Src/ili9341.c ****     {
 893              		.loc 1 173 5 view .LVU181
 894 014e F220     		movs	r0, #242
 895 0150 FFF7FEFF 		bl	ILI9341_WriteCommand
 896              	.LVL83:
 897              	.LBB21:
 175:Core/Src/ili9341.c ****         ILI9341_WriteData(data, sizeof(data));
 898              		.loc 1 175 9 view .LVU182
 175:Core/Src/ili9341.c ****         ILI9341_WriteData(data, sizeof(data));
 899              		.loc 1 175 17 is_stmt 0 view .LVU183
 900 0154 8DF80050 		strb	r5, [sp]
 176:Core/Src/ili9341.c ****     }
 901              		.loc 1 176 9 is_stmt 1 view .LVU184
 902 0158 0121     		movs	r1, #1
 903 015a 6846     		mov	r0, sp
 904 015c FFF7FEFF 		bl	ILI9341_WriteData
 905              	.LVL84:
 906              	.LBE21:
 180:Core/Src/ili9341.c ****     {
 907              		.loc 1 180 5 view .LVU185
 908 0160 2620     		movs	r0, #38
 909 0162 FFF7FEFF 		bl	ILI9341_WriteCommand
 910              	.LVL85:
 911              	.LBB22:
 182:Core/Src/ili9341.c ****         ILI9341_WriteData(data, sizeof(data));
 912              		.loc 1 182 9 view .LVU186
 182:Core/Src/ili9341.c ****         ILI9341_WriteData(data, sizeof(data));
 913              		.loc 1 182 17 is_stmt 0 view .LVU187
 914 0166 0125     		movs	r5, #1
 915 0168 8DF80050 		strb	r5, [sp]
 183:Core/Src/ili9341.c ****     }
 916              		.loc 1 183 9 is_stmt 1 view .LVU188
 917 016c 2946     		mov	r1, r5
 918 016e 6846     		mov	r0, sp
 919 0170 FFF7FEFF 		bl	ILI9341_WriteData
 920              	.LVL86:
 921              	.LBE22:
 187:Core/Src/ili9341.c ****     {
 922              		.loc 1 187 5 view .LVU189
 923 0174 E020     		movs	r0, #224
 924 0176 FFF7FEFF 		bl	ILI9341_WriteCommand
 925              	.LVL87:
 926              	.LBB23:
 189:Core/Src/ili9341.c ****                             0x37, 0x07, 0x10, 0x03, 0x0E, 0x09, 0x00 };
 927              		.loc 1 189 9 view .LVU190
 189:Core/Src/ili9341.c ****                             0x37, 0x07, 0x10, 0x03, 0x0E, 0x09, 0x00 };
 928              		.loc 1 189 17 is_stmt 0 view .LVU191
 929 017a 214B     		ldr	r3, .L46+12
 930 017c EC46     		mov	ip, sp
 931 017e 0FCB     		ldm	r3, {r0, r1, r2, r3}
 932 0180 ACE80700 		stmia	ip!, {r0, r1, r2}
 933 0184 2CF8023B 		strh	r3, [ip], #2	@ movhi
ARM GAS  C:\Users\ADMINI~1\AppData\Local\Temp\cc7pslQz.s 			page 29


 934 0188 1B0C     		lsrs	r3, r3, #16
 935 018a 8CF80030 		strb	r3, [ip]
 191:Core/Src/ili9341.c ****     }
 936              		.loc 1 191 9 is_stmt 1 view .LVU192
 937 018e 0F21     		movs	r1, #15
 938 0190 6846     		mov	r0, sp
 939 0192 FFF7FEFF 		bl	ILI9341_WriteData
 940              	.LVL88:
 941              	.LBE23:
 195:Core/Src/ili9341.c ****     {
 942              		.loc 1 195 5 view .LVU193
 943 0196 E120     		movs	r0, #225
 944 0198 FFF7FEFF 		bl	ILI9341_WriteCommand
 945              	.LVL89:
 946              	.LBB24:
 197:Core/Src/ili9341.c ****                             0x48, 0x08, 0x0F, 0x0C, 0x31, 0x36, 0x0F };
 947              		.loc 1 197 9 view .LVU194
 197:Core/Src/ili9341.c ****                             0x48, 0x08, 0x0F, 0x0C, 0x31, 0x36, 0x0F };
 948              		.loc 1 197 17 is_stmt 0 view .LVU195
 949 019c EC46     		mov	ip, sp
 950 019e 1034     		adds	r4, r4, #16
 951 01a0 94E80F00 		ldm	r4, {r0, r1, r2, r3}
 952 01a4 ACE80700 		stmia	ip!, {r0, r1, r2}
 953 01a8 2CF8023B 		strh	r3, [ip], #2	@ movhi
 954 01ac 1B0C     		lsrs	r3, r3, #16
 955 01ae 8CF80030 		strb	r3, [ip]
 199:Core/Src/ili9341.c ****     }
 956              		.loc 1 199 9 is_stmt 1 view .LVU196
 957 01b2 0F21     		movs	r1, #15
 958 01b4 6846     		mov	r0, sp
 959 01b6 FFF7FEFF 		bl	ILI9341_WriteData
 960              	.LVL90:
 961              	.LBE24:
 203:Core/Src/ili9341.c ****     HAL_Delay(120);
 962              		.loc 1 203 5 view .LVU197
 963 01ba 1120     		movs	r0, #17
 964 01bc FFF7FEFF 		bl	ILI9341_WriteCommand
 965              	.LVL91:
 204:Core/Src/ili9341.c **** 
 966              		.loc 1 204 5 view .LVU198
 967 01c0 7820     		movs	r0, #120
 968 01c2 FFF7FEFF 		bl	HAL_Delay
 969              	.LVL92:
 207:Core/Src/ili9341.c **** 
 970              		.loc 1 207 5 view .LVU199
 971 01c6 2920     		movs	r0, #41
 972 01c8 FFF7FEFF 		bl	ILI9341_WriteCommand
 973              	.LVL93:
 210:Core/Src/ili9341.c ****     {
 974              		.loc 1 210 5 view .LVU200
 975 01cc 3620     		movs	r0, #54
 976 01ce FFF7FEFF 		bl	ILI9341_WriteCommand
 977              	.LVL94:
 978              	.LBB25:
 212:Core/Src/ili9341.c ****         ILI9341_WriteData(data, sizeof(data));
 979              		.loc 1 212 9 view .LVU201
 212:Core/Src/ili9341.c ****         ILI9341_WriteData(data, sizeof(data));
ARM GAS  C:\Users\ADMINI~1\AppData\Local\Temp\cc7pslQz.s 			page 30


 980              		.loc 1 212 17 is_stmt 0 view .LVU202
 981 01d2 E823     		movs	r3, #232
 982 01d4 8DF80030 		strb	r3, [sp]
 213:Core/Src/ili9341.c ****     }
 983              		.loc 1 213 9 is_stmt 1 view .LVU203
 984 01d8 2946     		mov	r1, r5
 985 01da 6846     		mov	r0, sp
 986 01dc FFF7FEFF 		bl	ILI9341_WriteData
 987              	.LVL95:
 988              	.LBE25:
 216:Core/Src/ili9341.c **** 
 989              		.loc 1 216 5 view .LVU204
 990 01e0 FFF7FEFF 		bl	ILI9341_Unselect
 991              	.LVL96:
 218:Core/Src/ili9341.c **** }
 992              		.loc 1 218 5 view .LVU205
 993 01e4 2A46     		mov	r2, r5
 994 01e6 0221     		movs	r1, #2
 995 01e8 0648     		ldr	r0, .L46+16
 996 01ea FFF7FEFF 		bl	HAL_GPIO_WritePin
 997              	.LVL97:
 219:Core/Src/ili9341.c **** 
 998              		.loc 1 219 1 is_stmt 0 view .LVU206
 999 01ee 05B0     		add	sp, sp, #20
 1000              	.LCFI19:
 1001              		.cfi_def_cfa_offset 12
 1002              		@ sp needed
 1003 01f0 30BD     		pop	{r4, r5, pc}
 1004              	.L47:
 1005 01f2 00BF     		.align	2
 1006              	.L46:
 1007 01f4 00000000 		.word	.LANCHOR0
 1008 01f8 64031281 		.word	-2129525916
 1009 01fc 00000000 		.word	.LC3
 1010 0200 04000000 		.word	.LC4
 1011 0204 000C0140 		.word	1073810432
 1012              		.cfi_endproc
 1013              	.LFE71:
 1015              		.section	.text.ILI9341_DrawPixel,"ax",%progbits
 1016              		.align	1
 1017              		.global	ILI9341_DrawPixel
 1018              		.syntax unified
 1019              		.thumb
 1020              		.thumb_func
 1022              	ILI9341_DrawPixel:
 1023              	.LVL98:
 1024              	.LFB72:
 222:Core/Src/ili9341.c ****     if((x >= ILI9341_WIDTH) || (y >= ILI9341_HEIGHT))
 1025              		.loc 1 222 1 is_stmt 1 view -0
 1026              		.cfi_startproc
 1027              		@ args = 0, pretend = 0, frame = 8
 1028              		@ frame_needed = 0, uses_anonymous_args = 0
 223:Core/Src/ili9341.c ****         return;
 1029              		.loc 1 223 5 view .LVU208
 223:Core/Src/ili9341.c ****         return;
 1030              		.loc 1 223 7 is_stmt 0 view .LVU209
 1031 0000 B0F5A07F 		cmp	r0, #320
ARM GAS  C:\Users\ADMINI~1\AppData\Local\Temp\cc7pslQz.s 			page 31


 1032 0004 1ED2     		bcs	.L53
 222:Core/Src/ili9341.c ****     if((x >= ILI9341_WIDTH) || (y >= ILI9341_HEIGHT))
 1033              		.loc 1 222 1 discriminator 1 view .LVU210
 1034 0006 70B5     		push	{r4, r5, r6, lr}
 1035              	.LCFI20:
 1036              		.cfi_def_cfa_offset 16
 1037              		.cfi_offset 4, -16
 1038              		.cfi_offset 5, -12
 1039              		.cfi_offset 6, -8
 1040              		.cfi_offset 14, -4
 1041 0008 82B0     		sub	sp, sp, #8
 1042              	.LCFI21:
 1043              		.cfi_def_cfa_offset 24
 1044 000a 0446     		mov	r4, r0
 1045 000c 0D46     		mov	r5, r1
 1046 000e 1646     		mov	r6, r2
 223:Core/Src/ili9341.c ****         return;
 1047              		.loc 1 223 29 discriminator 1 view .LVU211
 1048 0010 EF29     		cmp	r1, #239
 1049 0012 01D9     		bls	.L56
 1050              	.LVL99:
 1051              	.L48:
 233:Core/Src/ili9341.c **** 
 1052              		.loc 1 233 1 view .LVU212
 1053 0014 02B0     		add	sp, sp, #8
 1054              	.LCFI22:
 1055              		.cfi_remember_state
 1056              		.cfi_def_cfa_offset 16
 1057              		@ sp needed
 1058 0016 70BD     		pop	{r4, r5, r6, pc}
 1059              	.LVL100:
 1060              	.L56:
 1061              	.LCFI23:
 1062              		.cfi_restore_state
 226:Core/Src/ili9341.c **** 
 1063              		.loc 1 226 5 is_stmt 1 view .LVU213
 1064 0018 FFF7FEFF 		bl	ILI9341_Select
 1065              	.LVL101:
 228:Core/Src/ili9341.c ****     uint8_t data[] = { color >> 8, color & 0xFF };
 1066              		.loc 1 228 5 view .LVU214
 1067 001c 6B1C     		adds	r3, r5, #1
 1068 001e 621C     		adds	r2, r4, #1
 1069 0020 9BB2     		uxth	r3, r3
 1070 0022 92B2     		uxth	r2, r2
 1071 0024 2946     		mov	r1, r5
 1072 0026 2046     		mov	r0, r4
 1073 0028 FFF7FEFF 		bl	ILI9341_SetAddressWindow
 1074              	.LVL102:
 229:Core/Src/ili9341.c ****     ILI9341_WriteData(data, sizeof(data));
 1075              		.loc 1 229 5 view .LVU215
 229:Core/Src/ili9341.c ****     ILI9341_WriteData(data, sizeof(data));
 1076              		.loc 1 229 13 is_stmt 0 view .LVU216
 1077 002c 330A     		lsrs	r3, r6, #8
 1078 002e 8DF80430 		strb	r3, [sp, #4]
 1079 0032 8DF80560 		strb	r6, [sp, #5]
 230:Core/Src/ili9341.c **** 
 1080              		.loc 1 230 5 is_stmt 1 view .LVU217
ARM GAS  C:\Users\ADMINI~1\AppData\Local\Temp\cc7pslQz.s 			page 32


 1081 0036 0221     		movs	r1, #2
 1082 0038 01A8     		add	r0, sp, #4
 1083 003a FFF7FEFF 		bl	ILI9341_WriteData
 1084              	.LVL103:
 232:Core/Src/ili9341.c **** }
 1085              		.loc 1 232 5 view .LVU218
 1086 003e FFF7FEFF 		bl	ILI9341_Unselect
 1087              	.LVL104:
 1088 0042 E7E7     		b	.L48
 1089              	.LVL105:
 1090              	.L53:
 1091              	.LCFI24:
 1092              		.cfi_def_cfa_offset 0
 1093              		.cfi_restore 4
 1094              		.cfi_restore 5
 1095              		.cfi_restore 6
 1096              		.cfi_restore 14
 232:Core/Src/ili9341.c **** }
 1097              		.loc 1 232 5 is_stmt 0 view .LVU219
 1098 0044 7047     		bx	lr
 1099              		.cfi_endproc
 1100              	.LFE72:
 1102              		.section	.text.ILI9341_DrawLine,"ax",%progbits
 1103              		.align	1
 1104              		.global	ILI9341_DrawLine
 1105              		.syntax unified
 1106              		.thumb
 1107              		.thumb_func
 1109              	ILI9341_DrawLine:
 1110              	.LVL106:
 1111              	.LFB73:
 236:Core/Src/ili9341.c ****     uint16_t t; 
 1112              		.loc 1 236 1 is_stmt 1 view -0
 1113              		.cfi_startproc
 1114              		@ args = 4, pretend = 0, frame = 16
 1115              		@ frame_needed = 0, uses_anonymous_args = 0
 236:Core/Src/ili9341.c ****     uint16_t t; 
 1116              		.loc 1 236 1 is_stmt 0 view .LVU221
 1117 0000 2DE9F04F 		push	{r4, r5, r6, r7, r8, r9, r10, fp, lr}
 1118              	.LCFI25:
 1119              		.cfi_def_cfa_offset 36
 1120              		.cfi_offset 4, -36
 1121              		.cfi_offset 5, -32
 1122              		.cfi_offset 6, -28
 1123              		.cfi_offset 7, -24
 1124              		.cfi_offset 8, -20
 1125              		.cfi_offset 9, -16
 1126              		.cfi_offset 10, -12
 1127              		.cfi_offset 11, -8
 1128              		.cfi_offset 14, -4
 1129 0004 85B0     		sub	sp, sp, #20
 1130              	.LCFI26:
 1131              		.cfi_def_cfa_offset 56
 1132 0006 BDF83840 		ldrh	r4, [sp, #56]
 1133 000a 0194     		str	r4, [sp, #4]
 237:Core/Src/ili9341.c **** 	int xerr = 0, yerr = 0, delta_x, delta_y, distance; 
 1134              		.loc 1 237 5 is_stmt 1 view .LVU222
ARM GAS  C:\Users\ADMINI~1\AppData\Local\Temp\cc7pslQz.s 			page 33


 238:Core/Src/ili9341.c **** 	int incx, incy, uRow, uCol;
 1135              		.loc 1 238 2 view .LVU223
 1136              	.LVL107:
 239:Core/Src/ili9341.c **** 
 1137              		.loc 1 239 2 view .LVU224
 241:Core/Src/ili9341.c **** 	delta_y = y2 - y1; 
 1138              		.loc 1 241 2 view .LVU225
 241:Core/Src/ili9341.c **** 	delta_y = y2 - y1; 
 1139              		.loc 1 241 15 is_stmt 0 view .LVU226
 1140 000c 8046     		mov	r8, r0
 241:Core/Src/ili9341.c **** 	delta_y = y2 - y1; 
 1141              		.loc 1 241 10 view .LVU227
 1142 000e A2EB000A 		sub	r10, r2, r0
 1143              	.LVL108:
 242:Core/Src/ili9341.c **** 	uRow = x1; 
 1144              		.loc 1 242 2 is_stmt 1 view .LVU228
 242:Core/Src/ili9341.c **** 	uRow = x1; 
 1145              		.loc 1 242 15 is_stmt 0 view .LVU229
 1146 0012 8946     		mov	r9, r1
 242:Core/Src/ili9341.c **** 	uRow = x1; 
 1147              		.loc 1 242 10 view .LVU230
 1148 0014 A3EB010B 		sub	fp, r3, r1
 1149              	.LVL109:
 243:Core/Src/ili9341.c **** 	uCol = y1;
 1150              		.loc 1 243 2 is_stmt 1 view .LVU231
 244:Core/Src/ili9341.c **** 
 1151              		.loc 1 244 2 view .LVU232
 246:Core/Src/ili9341.c ****         incx = 1;
 1152              		.loc 1 246 2 view .LVU233
 246:Core/Src/ili9341.c ****         incx = 1;
 1153              		.loc 1 246 5 is_stmt 0 view .LVU234
 1154 0018 BAF1000F 		cmp	r10, #0
 1155 001c 0DDD     		ble	.L71
 247:Core/Src/ili9341.c **** 	else if (delta_x == 0)
 1156              		.loc 1 247 14 view .LVU235
 1157 001e 0122     		movs	r2, #1
 1158              	.LVL110:
 247:Core/Src/ili9341.c **** 	else if (delta_x == 0)
 1159              		.loc 1 247 14 view .LVU236
 1160 0020 0292     		str	r2, [sp, #8]
 1161              	.L58:
 1162              	.LVL111:
 256:Core/Src/ili9341.c ****         incy = 1; 
 1163              		.loc 1 256 5 is_stmt 1 view .LVU237
 256:Core/Src/ili9341.c ****         incy = 1; 
 1164              		.loc 1 256 8 is_stmt 0 view .LVU238
 1165 0022 BBF1000F 		cmp	fp, #0
 1166 0026 14DD     		ble	.L72
 257:Core/Src/ili9341.c **** 	else if (delta_y==0)
 1167              		.loc 1 257 14 view .LVU239
 1168 0028 0123     		movs	r3, #1
 1169              	.LVL112:
 257:Core/Src/ili9341.c **** 	else if (delta_y==0)
 1170              		.loc 1 257 14 view .LVU240
 1171 002a 0393     		str	r3, [sp, #12]
 1172              	.L59:
 1173              	.LVL113:
ARM GAS  C:\Users\ADMINI~1\AppData\Local\Temp\cc7pslQz.s 			page 34


 266:Core/Src/ili9341.c ****         distance = delta_x;
 1174              		.loc 1 266 2 is_stmt 1 view .LVU241
 266:Core/Src/ili9341.c ****         distance = delta_x;
 1175              		.loc 1 266 5 is_stmt 0 view .LVU242
 1176 002c DA45     		cmp	r10, fp
 1177 002e 1CDD     		ble	.L69
 267:Core/Src/ili9341.c **** 	else 
 1178              		.loc 1 267 18 view .LVU243
 1179 0030 5646     		mov	r6, r10
 1180              	.L60:
 1181              	.LVL114:
 271:Core/Src/ili9341.c **** 	{  
 1182              		.loc 1 271 2 is_stmt 1 view .LVU244
 238:Core/Src/ili9341.c **** 	int incx, incy, uRow, uCol;
 1183              		.loc 1 238 16 is_stmt 0 view .LVU245
 1184 0032 0025     		movs	r5, #0
 238:Core/Src/ili9341.c **** 	int incx, incy, uRow, uCol;
 1185              		.loc 1 238 6 view .LVU246
 1186 0034 2F46     		mov	r7, r5
 271:Core/Src/ili9341.c **** 	{  
 1187              		.loc 1 271 8 view .LVU247
 1188 0036 2C46     		mov	r4, r5
 271:Core/Src/ili9341.c **** 	{  
 1189              		.loc 1 271 2 view .LVU248
 1190 0038 1BE0     		b	.L61
 1191              	.LVL115:
 1192              	.L71:
 248:Core/Src/ili9341.c ****         incx = 0;
 1193              		.loc 1 248 7 is_stmt 1 view .LVU249
 248:Core/Src/ili9341.c ****         incx = 0;
 1194              		.loc 1 248 10 is_stmt 0 view .LVU250
 1195 003a BAF1000F 		cmp	r10, #0
 1196 003e 05D0     		beq	.L66
 252:Core/Src/ili9341.c ****         delta_x = -delta_x;
 1197              		.loc 1 252 9 is_stmt 1 view .LVU251
 1198              	.LVL116:
 253:Core/Src/ili9341.c ****     } 
 1199              		.loc 1 253 9 view .LVU252
 253:Core/Src/ili9341.c ****     } 
 1200              		.loc 1 253 17 is_stmt 0 view .LVU253
 1201 0040 A0EB020A 		sub	r10, r0, r2
 1202              	.LVL117:
 252:Core/Src/ili9341.c ****         delta_x = -delta_x;
 1203              		.loc 1 252 14 view .LVU254
 1204 0044 4FF0FF32 		mov	r2, #-1
 1205              	.LVL118:
 252:Core/Src/ili9341.c ****         delta_x = -delta_x;
 1206              		.loc 1 252 14 view .LVU255
 1207 0048 0292     		str	r2, [sp, #8]
 1208 004a EAE7     		b	.L58
 1209              	.LVL119:
 1210              	.L66:
 249:Core/Src/ili9341.c **** 	else 
 1211              		.loc 1 249 14 view .LVU256
 1212 004c CDF808A0 		str	r10, [sp, #8]
 1213 0050 E7E7     		b	.L58
 1214              	.LVL120:
ARM GAS  C:\Users\ADMINI~1\AppData\Local\Temp\cc7pslQz.s 			page 35


 1215              	.L72:
 258:Core/Src/ili9341.c ****         incy = 0;
 1216              		.loc 1 258 7 is_stmt 1 view .LVU257
 258:Core/Src/ili9341.c ****         incy = 0;
 1217              		.loc 1 258 10 is_stmt 0 view .LVU258
 1218 0052 BBF1000F 		cmp	fp, #0
 1219 0056 05D0     		beq	.L68
 262:Core/Src/ili9341.c ****         delta_y = -delta_y;
 1220              		.loc 1 262 9 is_stmt 1 view .LVU259
 1221              	.LVL121:
 263:Core/Src/ili9341.c ****     } 
 1222              		.loc 1 263 9 view .LVU260
 263:Core/Src/ili9341.c ****     } 
 1223              		.loc 1 263 17 is_stmt 0 view .LVU261
 1224 0058 A1EB030B 		sub	fp, r1, r3
 1225              	.LVL122:
 262:Core/Src/ili9341.c ****         delta_y = -delta_y;
 1226              		.loc 1 262 14 view .LVU262
 1227 005c 4FF0FF33 		mov	r3, #-1
 1228              	.LVL123:
 262:Core/Src/ili9341.c ****         delta_y = -delta_y;
 1229              		.loc 1 262 14 view .LVU263
 1230 0060 0393     		str	r3, [sp, #12]
 1231 0062 E3E7     		b	.L59
 1232              	.LVL124:
 1233              	.L68:
 259:Core/Src/ili9341.c **** 	else
 1234              		.loc 1 259 14 view .LVU264
 1235 0064 CDF80CB0 		str	fp, [sp, #12]
 1236 0068 E0E7     		b	.L59
 1237              	.LVL125:
 1238              	.L69:
 269:Core/Src/ili9341.c ****     
 1239              		.loc 1 269 18 view .LVU265
 1240 006a 5E46     		mov	r6, fp
 1241 006c E1E7     		b	.L60
 1242              	.LVL126:
 1243              	.L63:
 271:Core/Src/ili9341.c **** 	{  
 1244              		.loc 1 271 32 is_stmt 1 discriminator 2 view .LVU266
 271:Core/Src/ili9341.c **** 	{  
 1245              		.loc 1 271 33 is_stmt 0 discriminator 2 view .LVU267
 1246 006e 0134     		adds	r4, r4, #1
 1247              	.LVL127:
 271:Core/Src/ili9341.c **** 	{  
 1248              		.loc 1 271 33 discriminator 2 view .LVU268
 1249 0070 A4B2     		uxth	r4, r4
 1250              	.LVL128:
 1251              	.L61:
 271:Core/Src/ili9341.c **** 	{  
 1252              		.loc 1 271 13 is_stmt 1 discriminator 1 view .LVU269
 271:Core/Src/ili9341.c **** 	{  
 1253              		.loc 1 271 27 is_stmt 0 discriminator 1 view .LVU270
 1254 0072 731C     		adds	r3, r6, #1
 271:Core/Src/ili9341.c **** 	{  
 1255              		.loc 1 271 2 discriminator 1 view .LVU271
 1256 0074 9C42     		cmp	r4, r3
ARM GAS  C:\Users\ADMINI~1\AppData\Local\Temp\cc7pslQz.s 			page 36


 1257 0076 13DC     		bgt	.L73
 273:Core/Src/ili9341.c **** 
 1258              		.loc 1 273 3 is_stmt 1 view .LVU272
 1259 0078 019A     		ldr	r2, [sp, #4]
 1260 007a 1FFA89F1 		uxth	r1, r9
 1261 007e 1FFA88F0 		uxth	r0, r8
 1262 0082 FFF7FEFF 		bl	ILI9341_DrawPixel
 1263              	.LVL129:
 275:Core/Src/ili9341.c **** 		yerr += delta_y; 
 1264              		.loc 1 275 3 view .LVU273
 275:Core/Src/ili9341.c **** 		yerr += delta_y; 
 1265              		.loc 1 275 8 is_stmt 0 view .LVU274
 1266 0086 5744     		add	r7, r7, r10
 1267              	.LVL130:
 276:Core/Src/ili9341.c **** 
 1268              		.loc 1 276 3 is_stmt 1 view .LVU275
 276:Core/Src/ili9341.c **** 
 1269              		.loc 1 276 8 is_stmt 0 view .LVU276
 1270 0088 5D44     		add	r5, r5, fp
 1271              	.LVL131:
 278:Core/Src/ili9341.c **** 		{ 
 1272              		.loc 1 278 3 is_stmt 1 view .LVU277
 278:Core/Src/ili9341.c **** 		{ 
 1273              		.loc 1 278 6 is_stmt 0 view .LVU278
 1274 008a BE42     		cmp	r6, r7
 1275 008c 02DA     		bge	.L62
 280:Core/Src/ili9341.c **** 			uRow += incx; 
 1276              		.loc 1 280 4 is_stmt 1 view .LVU279
 280:Core/Src/ili9341.c **** 			uRow += incx; 
 1277              		.loc 1 280 9 is_stmt 0 view .LVU280
 1278 008e BF1B     		subs	r7, r7, r6
 1279              	.LVL132:
 281:Core/Src/ili9341.c **** 		} 
 1280              		.loc 1 281 4 is_stmt 1 view .LVU281
 281:Core/Src/ili9341.c **** 		} 
 1281              		.loc 1 281 9 is_stmt 0 view .LVU282
 1282 0090 029B     		ldr	r3, [sp, #8]
 1283 0092 9844     		add	r8, r8, r3
 1284              	.LVL133:
 1285              	.L62:
 283:Core/Src/ili9341.c **** 		{ 
 1286              		.loc 1 283 3 is_stmt 1 view .LVU283
 283:Core/Src/ili9341.c **** 		{ 
 1287              		.loc 1 283 6 is_stmt 0 view .LVU284
 1288 0094 AE42     		cmp	r6, r5
 1289 0096 EADA     		bge	.L63
 285:Core/Src/ili9341.c **** 			uCol += incy; 
 1290              		.loc 1 285 4 is_stmt 1 view .LVU285
 285:Core/Src/ili9341.c **** 			uCol += incy; 
 1291              		.loc 1 285 9 is_stmt 0 view .LVU286
 1292 0098 AD1B     		subs	r5, r5, r6
 1293              	.LVL134:
 286:Core/Src/ili9341.c **** 		} 
 1294              		.loc 1 286 4 is_stmt 1 view .LVU287
 286:Core/Src/ili9341.c **** 		} 
 1295              		.loc 1 286 9 is_stmt 0 view .LVU288
 1296 009a 039B     		ldr	r3, [sp, #12]
ARM GAS  C:\Users\ADMINI~1\AppData\Local\Temp\cc7pslQz.s 			page 37


 1297 009c 9944     		add	r9, r9, r3
 1298              	.LVL135:
 286:Core/Src/ili9341.c **** 		} 
 1299              		.loc 1 286 9 view .LVU289
 1300 009e E6E7     		b	.L63
 1301              	.L73:
 289:Core/Src/ili9341.c **** 
 1302              		.loc 1 289 1 view .LVU290
 1303 00a0 05B0     		add	sp, sp, #20
 1304              	.LCFI27:
 1305              		.cfi_def_cfa_offset 36
 1306              		@ sp needed
 1307 00a2 BDE8F08F 		pop	{r4, r5, r6, r7, r8, r9, r10, fp, pc}
 289:Core/Src/ili9341.c **** 
 1308              		.loc 1 289 1 view .LVU291
 1309              		.cfi_endproc
 1310              	.LFE73:
 1312              		.section	.text.ILI9341_WriteString,"ax",%progbits
 1313              		.align	1
 1314              		.global	ILI9341_WriteString
 1315              		.syntax unified
 1316              		.thumb
 1317              		.thumb_func
 1319              	ILI9341_WriteString:
 1320              	.LVL136:
 1321              	.LFB75:
 312:Core/Src/ili9341.c ****     ILI9341_Select();
 1322              		.loc 1 312 1 is_stmt 1 view -0
 1323              		.cfi_startproc
 1324              		@ args = 20, pretend = 8, frame = 0
 1325              		@ frame_needed = 0, uses_anonymous_args = 0
 312:Core/Src/ili9341.c ****     ILI9341_Select();
 1326              		.loc 1 312 1 is_stmt 0 view .LVU293
 1327 0000 82B0     		sub	sp, sp, #8
 1328              	.LCFI28:
 1329              		.cfi_def_cfa_offset 8
 1330 0002 2DE9F043 		push	{r4, r5, r6, r7, r8, r9, lr}
 1331              	.LCFI29:
 1332              		.cfi_def_cfa_offset 36
 1333              		.cfi_offset 4, -36
 1334              		.cfi_offset 5, -32
 1335              		.cfi_offset 6, -28
 1336              		.cfi_offset 7, -24
 1337              		.cfi_offset 8, -20
 1338              		.cfi_offset 9, -16
 1339              		.cfi_offset 14, -12
 1340 0006 85B0     		sub	sp, sp, #20
 1341              	.LCFI30:
 1342              		.cfi_def_cfa_offset 56
 1343 0008 0646     		mov	r6, r0
 1344 000a 0D46     		mov	r5, r1
 1345 000c 1746     		mov	r7, r2
 1346 000e 0D93     		str	r3, [sp, #52]
 1347 0010 BDF83C90 		ldrh	r9, [sp, #60]
 1348 0014 BDF84080 		ldrh	r8, [sp, #64]
 313:Core/Src/ili9341.c **** 
 1349              		.loc 1 313 5 is_stmt 1 view .LVU294
ARM GAS  C:\Users\ADMINI~1\AppData\Local\Temp\cc7pslQz.s 			page 38


 1350 0018 FFF7FEFF 		bl	ILI9341_Select
 1351              	.LVL137:
 315:Core/Src/ili9341.c ****         if(x + font.width >= ILI9341_WIDTH) {
 1352              		.loc 1 315 5 view .LVU295
 315:Core/Src/ili9341.c ****         if(x + font.width >= ILI9341_WIDTH) {
 1353              		.loc 1 315 10 is_stmt 0 view .LVU296
 1354 001c 10E0     		b	.L75
 1355              	.LVL138:
 1356              	.L82:
 325:Core/Src/ili9341.c ****                 continue;
 1357              		.loc 1 325 17 is_stmt 1 view .LVU297
 325:Core/Src/ili9341.c ****                 continue;
 1358              		.loc 1 325 20 is_stmt 0 view .LVU298
 1359 001e 0137     		adds	r7, r7, #1
 1360              	.LVL139:
 326:Core/Src/ili9341.c ****             }
 1361              		.loc 1 326 17 is_stmt 1 view .LVU299
 317:Core/Src/ili9341.c ****             y += font.height;
 1362              		.loc 1 317 15 is_stmt 0 view .LVU300
 1363 0020 0026     		movs	r6, #0
 326:Core/Src/ili9341.c ****             }
 1364              		.loc 1 326 17 view .LVU301
 1365 0022 0DE0     		b	.L75
 1366              	.LVL140:
 1367              	.L76:
 330:Core/Src/ili9341.c ****         x += font.width;
 1368              		.loc 1 330 9 is_stmt 1 view .LVU302
 1369 0024 CDF80880 		str	r8, [sp, #8]
 1370 0028 CDF80490 		str	r9, [sp, #4]
 1371 002c 0E9B     		ldr	r3, [sp, #56]
 1372 002e 0093     		str	r3, [sp]
 1373 0030 0D9B     		ldr	r3, [sp, #52]
 1374 0032 2946     		mov	r1, r5
 1375 0034 3046     		mov	r0, r6
 1376 0036 FFF7FEFF 		bl	ILI9341_WriteChar
 1377              	.LVL141:
 331:Core/Src/ili9341.c ****         str++;
 1378              		.loc 1 331 9 view .LVU303
 331:Core/Src/ili9341.c ****         str++;
 1379              		.loc 1 331 11 is_stmt 0 view .LVU304
 1380 003a 3444     		add	r4, r4, r6
 1381 003c A6B2     		uxth	r6, r4
 1382              	.LVL142:
 332:Core/Src/ili9341.c ****     }
 1383              		.loc 1 332 9 is_stmt 1 view .LVU305
 332:Core/Src/ili9341.c ****     }
 1384              		.loc 1 332 12 is_stmt 0 view .LVU306
 1385 003e 0137     		adds	r7, r7, #1
 1386              	.LVL143:
 1387              	.L75:
 315:Core/Src/ili9341.c ****         if(x + font.width >= ILI9341_WIDTH) {
 1388              		.loc 1 315 10 is_stmt 1 view .LVU307
 315:Core/Src/ili9341.c ****         if(x + font.width >= ILI9341_WIDTH) {
 1389              		.loc 1 315 11 is_stmt 0 view .LVU308
 1390 0040 3A78     		ldrb	r2, [r7]	@ zero_extendqisi2
 315:Core/Src/ili9341.c ****         if(x + font.width >= ILI9341_WIDTH) {
 1391              		.loc 1 315 10 view .LVU309
ARM GAS  C:\Users\ADMINI~1\AppData\Local\Temp\cc7pslQz.s 			page 39


 1392 0042 82B1     		cbz	r2, .L77
 316:Core/Src/ili9341.c ****             x = 0;
 1393              		.loc 1 316 9 is_stmt 1 view .LVU310
 316:Core/Src/ili9341.c ****             x = 0;
 1394              		.loc 1 316 20 is_stmt 0 view .LVU311
 1395 0044 9DF83440 		ldrb	r4, [sp, #52]	@ zero_extendqisi2
 316:Core/Src/ili9341.c ****             x = 0;
 1396              		.loc 1 316 14 view .LVU312
 1397 0048 3319     		adds	r3, r6, r4
 316:Core/Src/ili9341.c ****             x = 0;
 1398              		.loc 1 316 11 view .LVU313
 1399 004a B3F5A07F 		cmp	r3, #320
 1400 004e E9DB     		blt	.L76
 317:Core/Src/ili9341.c ****             y += font.height;
 1401              		.loc 1 317 13 is_stmt 1 view .LVU314
 1402              	.LVL144:
 318:Core/Src/ili9341.c ****             if(y + font.height >= ILI9341_HEIGHT) {
 1403              		.loc 1 318 13 view .LVU315
 318:Core/Src/ili9341.c ****             if(y + font.height >= ILI9341_HEIGHT) {
 1404              		.loc 1 318 22 is_stmt 0 view .LVU316
 1405 0050 9DF83530 		ldrb	r3, [sp, #53]	@ zero_extendqisi2
 318:Core/Src/ili9341.c ****             if(y + font.height >= ILI9341_HEIGHT) {
 1406              		.loc 1 318 15 view .LVU317
 1407 0054 1D44     		add	r5, r5, r3
 1408              	.LVL145:
 318:Core/Src/ili9341.c ****             if(y + font.height >= ILI9341_HEIGHT) {
 1409              		.loc 1 318 15 view .LVU318
 1410 0056 ADB2     		uxth	r5, r5
 1411              	.LVL146:
 319:Core/Src/ili9341.c ****                 break;
 1412              		.loc 1 319 13 is_stmt 1 view .LVU319
 319:Core/Src/ili9341.c ****                 break;
 1413              		.loc 1 319 18 is_stmt 0 view .LVU320
 1414 0058 2B44     		add	r3, r3, r5
 319:Core/Src/ili9341.c ****                 break;
 1415              		.loc 1 319 15 view .LVU321
 1416 005a EF2B     		cmp	r3, #239
 1417 005c 03DC     		bgt	.L77
 323:Core/Src/ili9341.c ****                 // skip spaces in the beginning of the new line
 1418              		.loc 1 323 13 is_stmt 1 view .LVU322
 323:Core/Src/ili9341.c ****                 // skip spaces in the beginning of the new line
 1419              		.loc 1 323 15 is_stmt 0 view .LVU323
 1420 005e 202A     		cmp	r2, #32
 1421 0060 DDD0     		beq	.L82
 317:Core/Src/ili9341.c ****             y += font.height;
 1422              		.loc 1 317 15 view .LVU324
 1423 0062 0026     		movs	r6, #0
 1424 0064 DEE7     		b	.L76
 1425              	.LVL147:
 1426              	.L77:
 335:Core/Src/ili9341.c **** }
 1427              		.loc 1 335 5 is_stmt 1 view .LVU325
 1428 0066 FFF7FEFF 		bl	ILI9341_Unselect
 1429              	.LVL148:
 336:Core/Src/ili9341.c **** 
 1430              		.loc 1 336 1 is_stmt 0 view .LVU326
 1431 006a 05B0     		add	sp, sp, #20
ARM GAS  C:\Users\ADMINI~1\AppData\Local\Temp\cc7pslQz.s 			page 40


 1432              	.LCFI31:
 1433              		.cfi_def_cfa_offset 36
 1434              		@ sp needed
 1435 006c BDE8F043 		pop	{r4, r5, r6, r7, r8, r9, lr}
 1436              	.LCFI32:
 1437              		.cfi_restore 14
 1438              		.cfi_restore 9
 1439              		.cfi_restore 8
 1440              		.cfi_restore 7
 1441              		.cfi_restore 6
 1442              		.cfi_restore 5
 1443              		.cfi_restore 4
 1444              		.cfi_def_cfa_offset 8
 1445              	.LVL149:
 336:Core/Src/ili9341.c **** 
 1446              		.loc 1 336 1 view .LVU327
 1447 0070 02B0     		add	sp, sp, #8
 1448              	.LCFI33:
 1449              		.cfi_def_cfa_offset 0
 1450 0072 7047     		bx	lr
 1451              		.cfi_endproc
 1452              	.LFE75:
 1454              		.section	.text.ILI9341_DrawRectangle,"ax",%progbits
 1455              		.align	1
 1456              		.global	ILI9341_DrawRectangle
 1457              		.syntax unified
 1458              		.thumb
 1459              		.thumb_func
 1461              	ILI9341_DrawRectangle:
 1462              	.LVL150:
 1463              	.LFB76:
 339:Core/Src/ili9341.c ****     ILI9341_DrawLine(x, y, x + w, y, color);
 1464              		.loc 1 339 1 is_stmt 1 view -0
 1465              		.cfi_startproc
 1466              		@ args = 4, pretend = 0, frame = 0
 1467              		@ frame_needed = 0, uses_anonymous_args = 0
 339:Core/Src/ili9341.c ****     ILI9341_DrawLine(x, y, x + w, y, color);
 1468              		.loc 1 339 1 is_stmt 0 view .LVU329
 1469 0000 2DE9F041 		push	{r4, r5, r6, r7, r8, lr}
 1470              	.LCFI34:
 1471              		.cfi_def_cfa_offset 24
 1472              		.cfi_offset 4, -24
 1473              		.cfi_offset 5, -20
 1474              		.cfi_offset 6, -16
 1475              		.cfi_offset 7, -12
 1476              		.cfi_offset 8, -8
 1477              		.cfi_offset 14, -4
 1478 0004 82B0     		sub	sp, sp, #8
 1479              	.LCFI35:
 1480              		.cfi_def_cfa_offset 32
 1481 0006 0646     		mov	r6, r0
 1482 0008 0F46     		mov	r7, r1
 1483 000a 1C46     		mov	r4, r3
 1484 000c BDF82080 		ldrh	r8, [sp, #32]
 340:Core/Src/ili9341.c ****     ILI9341_DrawLine(x + w, y, x + w, y + h, color);
 1485              		.loc 1 340 5 is_stmt 1 view .LVU330
 1486 0010 0244     		add	r2, r2, r0
ARM GAS  C:\Users\ADMINI~1\AppData\Local\Temp\cc7pslQz.s 			page 41


 1487              	.LVL151:
 340:Core/Src/ili9341.c ****     ILI9341_DrawLine(x + w, y, x + w, y + h, color);
 1488              		.loc 1 340 5 is_stmt 0 view .LVU331
 1489 0012 95B2     		uxth	r5, r2
 1490 0014 CDF80080 		str	r8, [sp]
 1491 0018 0B46     		mov	r3, r1
 1492              	.LVL152:
 340:Core/Src/ili9341.c ****     ILI9341_DrawLine(x + w, y, x + w, y + h, color);
 1493              		.loc 1 340 5 view .LVU332
 1494 001a 2A46     		mov	r2, r5
 1495 001c FFF7FEFF 		bl	ILI9341_DrawLine
 1496              	.LVL153:
 341:Core/Src/ili9341.c ****     ILI9341_DrawLine(x, y, x, y + h, color);
 1497              		.loc 1 341 5 is_stmt 1 view .LVU333
 1498 0020 3C44     		add	r4, r4, r7
 1499 0022 A4B2     		uxth	r4, r4
 1500 0024 CDF80080 		str	r8, [sp]
 1501 0028 2346     		mov	r3, r4
 1502 002a 2A46     		mov	r2, r5
 1503 002c 3946     		mov	r1, r7
 1504 002e 2846     		mov	r0, r5
 1505 0030 FFF7FEFF 		bl	ILI9341_DrawLine
 1506              	.LVL154:
 342:Core/Src/ili9341.c ****     ILI9341_DrawLine(x, y + h, x + w, y + h, color);
 1507              		.loc 1 342 5 view .LVU334
 1508 0034 CDF80080 		str	r8, [sp]
 1509 0038 2346     		mov	r3, r4
 1510 003a 3246     		mov	r2, r6
 1511 003c 3946     		mov	r1, r7
 1512 003e 3046     		mov	r0, r6
 1513 0040 FFF7FEFF 		bl	ILI9341_DrawLine
 1514              	.LVL155:
 343:Core/Src/ili9341.c **** }
 1515              		.loc 1 343 5 view .LVU335
 1516 0044 CDF80080 		str	r8, [sp]
 1517 0048 2346     		mov	r3, r4
 1518 004a 2A46     		mov	r2, r5
 1519 004c 2146     		mov	r1, r4
 1520 004e 3046     		mov	r0, r6
 1521 0050 FFF7FEFF 		bl	ILI9341_DrawLine
 1522              	.LVL156:
 344:Core/Src/ili9341.c **** 
 1523              		.loc 1 344 1 is_stmt 0 view .LVU336
 1524 0054 02B0     		add	sp, sp, #8
 1525              	.LCFI36:
 1526              		.cfi_def_cfa_offset 24
 1527              		@ sp needed
 1528 0056 BDE8F081 		pop	{r4, r5, r6, r7, r8, pc}
 344:Core/Src/ili9341.c **** 
 1529              		.loc 1 344 1 view .LVU337
 1530              		.cfi_endproc
 1531              	.LFE76:
 1533              		.section	.text.ILI9341_FillRectangle,"ax",%progbits
 1534              		.align	1
 1535              		.global	ILI9341_FillRectangle
 1536              		.syntax unified
 1537              		.thumb
ARM GAS  C:\Users\ADMINI~1\AppData\Local\Temp\cc7pslQz.s 			page 42


 1538              		.thumb_func
 1540              	ILI9341_FillRectangle:
 1541              	.LVL157:
 1542              	.LFB77:
 347:Core/Src/ili9341.c ****     // clipping
 1543              		.loc 1 347 1 is_stmt 1 view -0
 1544              		.cfi_startproc
 1545              		@ args = 4, pretend = 0, frame = 8
 1546              		@ frame_needed = 0, uses_anonymous_args = 0
 347:Core/Src/ili9341.c ****     // clipping
 1547              		.loc 1 347 1 is_stmt 0 view .LVU339
 1548 0000 2DE9F041 		push	{r4, r5, r6, r7, r8, lr}
 1549              	.LCFI37:
 1550              		.cfi_def_cfa_offset 24
 1551              		.cfi_offset 4, -24
 1552              		.cfi_offset 5, -20
 1553              		.cfi_offset 6, -16
 1554              		.cfi_offset 7, -12
 1555              		.cfi_offset 8, -8
 1556              		.cfi_offset 14, -4
 1557 0004 82B0     		sub	sp, sp, #8
 1558              	.LCFI38:
 1559              		.cfi_def_cfa_offset 32
 1560 0006 BDF82080 		ldrh	r8, [sp, #32]
 349:Core/Src/ili9341.c ****     if((x + w - 1) >= ILI9341_WIDTH) w = ILI9341_WIDTH - x;
 1561              		.loc 1 349 5 is_stmt 1 view .LVU340
 349:Core/Src/ili9341.c ****     if((x + w - 1) >= ILI9341_WIDTH) w = ILI9341_WIDTH - x;
 1562              		.loc 1 349 7 is_stmt 0 view .LVU341
 1563 000a B0F5A07F 		cmp	r0, #320
 1564 000e 3ED2     		bcs	.L85
 1565 0010 0446     		mov	r4, r0
 1566 0012 0F46     		mov	r7, r1
 1567 0014 1646     		mov	r6, r2
 1568 0016 1D46     		mov	r5, r3
 349:Core/Src/ili9341.c ****     if((x + w - 1) >= ILI9341_WIDTH) w = ILI9341_WIDTH - x;
 1569              		.loc 1 349 29 discriminator 2 view .LVU342
 1570 0018 EF29     		cmp	r1, #239
 1571 001a 38D8     		bhi	.L85
 350:Core/Src/ili9341.c ****     if((y + h - 1) >= ILI9341_HEIGHT) h = ILI9341_HEIGHT - y;
 1572              		.loc 1 350 5 is_stmt 1 view .LVU343
 350:Core/Src/ili9341.c ****     if((y + h - 1) >= ILI9341_HEIGHT) h = ILI9341_HEIGHT - y;
 1573              		.loc 1 350 11 is_stmt 0 view .LVU344
 1574 001c 8318     		adds	r3, r0, r2
 1575              	.LVL158:
 350:Core/Src/ili9341.c ****     if((y + h - 1) >= ILI9341_HEIGHT) h = ILI9341_HEIGHT - y;
 1576              		.loc 1 350 7 view .LVU345
 1577 001e B3F5A07F 		cmp	r3, #320
 1578 0022 02DD     		ble	.L89
 350:Core/Src/ili9341.c ****     if((y + h - 1) >= ILI9341_HEIGHT) h = ILI9341_HEIGHT - y;
 1579              		.loc 1 350 38 is_stmt 1 discriminator 1 view .LVU346
 350:Core/Src/ili9341.c ****     if((y + h - 1) >= ILI9341_HEIGHT) h = ILI9341_HEIGHT - y;
 1580              		.loc 1 350 40 is_stmt 0 discriminator 1 view .LVU347
 1581 0024 C0F5A076 		rsb	r6, r0, #320
 1582 0028 B6B2     		uxth	r6, r6
 1583              	.LVL159:
 1584              	.L89:
 351:Core/Src/ili9341.c **** 
ARM GAS  C:\Users\ADMINI~1\AppData\Local\Temp\cc7pslQz.s 			page 43


 1585              		.loc 1 351 5 is_stmt 1 view .LVU348
 351:Core/Src/ili9341.c **** 
 1586              		.loc 1 351 11 is_stmt 0 view .LVU349
 1587 002a 7B19     		adds	r3, r7, r5
 351:Core/Src/ili9341.c **** 
 1588              		.loc 1 351 7 view .LVU350
 1589 002c F02B     		cmp	r3, #240
 1590 002e 02DD     		ble	.L90
 351:Core/Src/ili9341.c **** 
 1591              		.loc 1 351 39 is_stmt 1 discriminator 1 view .LVU351
 351:Core/Src/ili9341.c **** 
 1592              		.loc 1 351 41 is_stmt 0 discriminator 1 view .LVU352
 1593 0030 C7F1F005 		rsb	r5, r7, #240
 1594 0034 ADB2     		uxth	r5, r5
 1595              	.LVL160:
 1596              	.L90:
 353:Core/Src/ili9341.c ****     ILI9341_SetAddressWindow(x, y, x+w-1, y+h-1);
 1597              		.loc 1 353 5 is_stmt 1 view .LVU353
 1598 0036 FFF7FEFF 		bl	ILI9341_Select
 1599              	.LVL161:
 354:Core/Src/ili9341.c **** 
 1600              		.loc 1 354 5 view .LVU354
 354:Core/Src/ili9341.c **** 
 1601              		.loc 1 354 37 is_stmt 0 view .LVU355
 1602 003a 3219     		adds	r2, r6, r4
 1603 003c 92B2     		uxth	r2, r2
 354:Core/Src/ili9341.c **** 
 1604              		.loc 1 354 44 view .LVU356
 1605 003e EB19     		adds	r3, r5, r7
 1606 0040 9BB2     		uxth	r3, r3
 354:Core/Src/ili9341.c **** 
 1607              		.loc 1 354 5 view .LVU357
 1608 0042 013B     		subs	r3, r3, #1
 1609 0044 013A     		subs	r2, r2, #1
 1610 0046 9BB2     		uxth	r3, r3
 1611 0048 92B2     		uxth	r2, r2
 1612 004a 3946     		mov	r1, r7
 1613 004c 2046     		mov	r0, r4
 1614 004e FFF7FEFF 		bl	ILI9341_SetAddressWindow
 1615              	.LVL162:
 356:Core/Src/ili9341.c ****     HAL_GPIO_WritePin(ILI9341_DC_GPIO_Port, ILI9341_DC_Pin, GPIO_PIN_SET);
 1616              		.loc 1 356 5 is_stmt 1 view .LVU358
 356:Core/Src/ili9341.c ****     HAL_GPIO_WritePin(ILI9341_DC_GPIO_Port, ILI9341_DC_Pin, GPIO_PIN_SET);
 1617              		.loc 1 356 13 is_stmt 0 view .LVU359
 1618 0052 4FEA1823 		lsr	r3, r8, #8
 1619 0056 8DF80430 		strb	r3, [sp, #4]
 1620 005a 8DF80580 		strb	r8, [sp, #5]
 357:Core/Src/ili9341.c ****     for(y = h; y > 0; y--) {
 1621              		.loc 1 357 5 is_stmt 1 view .LVU360
 1622 005e 0122     		movs	r2, #1
 1623 0060 1146     		mov	r1, r2
 1624 0062 0C48     		ldr	r0, .L97
 1625 0064 FFF7FEFF 		bl	HAL_GPIO_WritePin
 1626              	.LVL163:
 358:Core/Src/ili9341.c ****         for(x = w; x > 0; x--) {
 1627              		.loc 1 358 5 view .LVU361
 358:Core/Src/ili9341.c ****         for(x = w; x > 0; x--) {
ARM GAS  C:\Users\ADMINI~1\AppData\Local\Temp\cc7pslQz.s 			page 44


 1628              		.loc 1 358 5 is_stmt 0 view .LVU362
 1629 0068 0CE0     		b	.L91
 1630              	.LVL164:
 1631              	.L92:
 360:Core/Src/ili9341.c ****         }
 1632              		.loc 1 360 13 is_stmt 1 discriminator 3 view .LVU363
 1633 006a 4FF0FF33 		mov	r3, #-1
 1634 006e 0222     		movs	r2, #2
 1635 0070 01A9     		add	r1, sp, #4
 1636 0072 0948     		ldr	r0, .L97+4
 1637 0074 FFF7FEFF 		bl	HAL_SPI_Transmit
 1638              	.LVL165:
 359:Core/Src/ili9341.c ****             HAL_SPI_Transmit(&ILI9341_SPI_PORT, data, sizeof(data), HAL_MAX_DELAY);
 1639              		.loc 1 359 27 discriminator 3 view .LVU364
 359:Core/Src/ili9341.c ****             HAL_SPI_Transmit(&ILI9341_SPI_PORT, data, sizeof(data), HAL_MAX_DELAY);
 1640              		.loc 1 359 28 is_stmt 0 discriminator 3 view .LVU365
 1641 0078 013C     		subs	r4, r4, #1
 1642              	.LVL166:
 359:Core/Src/ili9341.c ****             HAL_SPI_Transmit(&ILI9341_SPI_PORT, data, sizeof(data), HAL_MAX_DELAY);
 1643              		.loc 1 359 28 discriminator 3 view .LVU366
 1644 007a A4B2     		uxth	r4, r4
 1645              	.LVL167:
 1646              	.L93:
 359:Core/Src/ili9341.c ****             HAL_SPI_Transmit(&ILI9341_SPI_PORT, data, sizeof(data), HAL_MAX_DELAY);
 1647              		.loc 1 359 20 is_stmt 1 discriminator 1 view .LVU367
 359:Core/Src/ili9341.c ****             HAL_SPI_Transmit(&ILI9341_SPI_PORT, data, sizeof(data), HAL_MAX_DELAY);
 1648              		.loc 1 359 9 is_stmt 0 discriminator 1 view .LVU368
 1649 007c 002C     		cmp	r4, #0
 1650 007e F4D1     		bne	.L92
 358:Core/Src/ili9341.c ****         for(x = w; x > 0; x--) {
 1651              		.loc 1 358 23 is_stmt 1 discriminator 2 view .LVU369
 358:Core/Src/ili9341.c ****         for(x = w; x > 0; x--) {
 1652              		.loc 1 358 24 is_stmt 0 discriminator 2 view .LVU370
 1653 0080 013D     		subs	r5, r5, #1
 1654              	.LVL168:
 358:Core/Src/ili9341.c ****         for(x = w; x > 0; x--) {
 1655              		.loc 1 358 24 discriminator 2 view .LVU371
 1656 0082 ADB2     		uxth	r5, r5
 1657              	.LVL169:
 1658              	.L91:
 358:Core/Src/ili9341.c ****         for(x = w; x > 0; x--) {
 1659              		.loc 1 358 16 is_stmt 1 discriminator 1 view .LVU372
 358:Core/Src/ili9341.c ****         for(x = w; x > 0; x--) {
 1660              		.loc 1 358 5 is_stmt 0 discriminator 1 view .LVU373
 1661 0084 0DB1     		cbz	r5, .L96
 359:Core/Src/ili9341.c ****             HAL_SPI_Transmit(&ILI9341_SPI_PORT, data, sizeof(data), HAL_MAX_DELAY);
 1662              		.loc 1 359 15 view .LVU374
 1663 0086 3446     		mov	r4, r6
 1664 0088 F8E7     		b	.L93
 1665              	.L96:
 364:Core/Src/ili9341.c **** }
 1666              		.loc 1 364 5 is_stmt 1 view .LVU375
 1667 008a FFF7FEFF 		bl	ILI9341_Unselect
 1668              	.LVL170:
 1669              	.L85:
 365:Core/Src/ili9341.c **** 
 1670              		.loc 1 365 1 is_stmt 0 view .LVU376
ARM GAS  C:\Users\ADMINI~1\AppData\Local\Temp\cc7pslQz.s 			page 45


 1671 008e 02B0     		add	sp, sp, #8
 1672              	.LCFI39:
 1673              		.cfi_def_cfa_offset 24
 1674              		@ sp needed
 1675 0090 BDE8F081 		pop	{r4, r5, r6, r7, r8, pc}
 1676              	.LVL171:
 1677              	.L98:
 365:Core/Src/ili9341.c **** 
 1678              		.loc 1 365 1 view .LVU377
 1679              		.align	2
 1680              	.L97:
 1681 0094 000C0140 		.word	1073810432
 1682 0098 00000000 		.word	hspi1
 1683              		.cfi_endproc
 1684              	.LFE77:
 1686              		.section	.text.ILI9341_FillScreen,"ax",%progbits
 1687              		.align	1
 1688              		.global	ILI9341_FillScreen
 1689              		.syntax unified
 1690              		.thumb
 1691              		.thumb_func
 1693              	ILI9341_FillScreen:
 1694              	.LVL172:
 1695              	.LFB78:
 368:Core/Src/ili9341.c ****     ILI9341_FillRectangle(0, 0, ILI9341_WIDTH, ILI9341_HEIGHT, color);
 1696              		.loc 1 368 1 is_stmt 1 view -0
 1697              		.cfi_startproc
 1698              		@ args = 0, pretend = 0, frame = 0
 1699              		@ frame_needed = 0, uses_anonymous_args = 0
 368:Core/Src/ili9341.c ****     ILI9341_FillRectangle(0, 0, ILI9341_WIDTH, ILI9341_HEIGHT, color);
 1700              		.loc 1 368 1 is_stmt 0 view .LVU379
 1701 0000 00B5     		push	{lr}
 1702              	.LCFI40:
 1703              		.cfi_def_cfa_offset 4
 1704              		.cfi_offset 14, -4
 1705 0002 83B0     		sub	sp, sp, #12
 1706              	.LCFI41:
 1707              		.cfi_def_cfa_offset 16
 369:Core/Src/ili9341.c **** }
 1708              		.loc 1 369 5 is_stmt 1 view .LVU380
 1709 0004 0090     		str	r0, [sp]
 1710 0006 F023     		movs	r3, #240
 1711 0008 4FF4A072 		mov	r2, #320
 1712 000c 0021     		movs	r1, #0
 1713 000e 0846     		mov	r0, r1
 1714              	.LVL173:
 369:Core/Src/ili9341.c **** }
 1715              		.loc 1 369 5 is_stmt 0 view .LVU381
 1716 0010 FFF7FEFF 		bl	ILI9341_FillRectangle
 1717              	.LVL174:
 370:Core/Src/ili9341.c **** 
 1718              		.loc 1 370 1 view .LVU382
 1719 0014 03B0     		add	sp, sp, #12
 1720              	.LCFI42:
 1721              		.cfi_def_cfa_offset 4
 1722              		@ sp needed
 1723 0016 5DF804FB 		ldr	pc, [sp], #4
ARM GAS  C:\Users\ADMINI~1\AppData\Local\Temp\cc7pslQz.s 			page 46


 1724              		.cfi_endproc
 1725              	.LFE78:
 1727              		.section	.text.ILI9341_DrawImage,"ax",%progbits
 1728              		.align	1
 1729              		.global	ILI9341_DrawImage
 1730              		.syntax unified
 1731              		.thumb
 1732              		.thumb_func
 1734              	ILI9341_DrawImage:
 1735              	.LVL175:
 1736              	.LFB79:
 373:Core/Src/ili9341.c ****     if((x >= ILI9341_WIDTH) || (y >= ILI9341_HEIGHT)) return;
 1737              		.loc 1 373 1 is_stmt 1 view -0
 1738              		.cfi_startproc
 1739              		@ args = 4, pretend = 0, frame = 0
 1740              		@ frame_needed = 0, uses_anonymous_args = 0
 374:Core/Src/ili9341.c ****     if((x + w - 1) >= ILI9341_WIDTH) return;
 1741              		.loc 1 374 5 view .LVU384
 374:Core/Src/ili9341.c ****     if((x + w - 1) >= ILI9341_WIDTH) return;
 1742              		.loc 1 374 7 is_stmt 0 view .LVU385
 1743 0000 B0F5A07F 		cmp	r0, #320
 1744 0004 25D2     		bcs	.L104
 373:Core/Src/ili9341.c ****     if((x >= ILI9341_WIDTH) || (y >= ILI9341_HEIGHT)) return;
 1745              		.loc 1 373 1 discriminator 2 view .LVU386
 1746 0006 F8B5     		push	{r3, r4, r5, r6, r7, lr}
 1747              	.LCFI43:
 1748              		.cfi_def_cfa_offset 24
 1749              		.cfi_offset 3, -24
 1750              		.cfi_offset 4, -20
 1751              		.cfi_offset 5, -16
 1752              		.cfi_offset 6, -12
 1753              		.cfi_offset 7, -8
 1754              		.cfi_offset 14, -4
 1755 0008 0446     		mov	r4, r0
 1756 000a 0D46     		mov	r5, r1
 1757 000c 1746     		mov	r7, r2
 1758 000e 1E46     		mov	r6, r3
 374:Core/Src/ili9341.c ****     if((x + w - 1) >= ILI9341_WIDTH) return;
 1759              		.loc 1 374 29 discriminator 2 view .LVU387
 1760 0010 EF29     		cmp	r1, #239
 1761 0012 06D8     		bhi	.L101
 375:Core/Src/ili9341.c ****     if((y + h - 1) >= ILI9341_HEIGHT) return;
 1762              		.loc 1 375 5 is_stmt 1 view .LVU388
 375:Core/Src/ili9341.c ****     if((y + h - 1) >= ILI9341_HEIGHT) return;
 1763              		.loc 1 375 11 is_stmt 0 view .LVU389
 1764 0014 8318     		adds	r3, r0, r2
 1765              	.LVL176:
 375:Core/Src/ili9341.c ****     if((y + h - 1) >= ILI9341_HEIGHT) return;
 1766              		.loc 1 375 7 view .LVU390
 1767 0016 B3F5A07F 		cmp	r3, #320
 1768 001a 02DC     		bgt	.L101
 376:Core/Src/ili9341.c **** 
 1769              		.loc 1 376 5 is_stmt 1 view .LVU391
 376:Core/Src/ili9341.c **** 
 1770              		.loc 1 376 11 is_stmt 0 view .LVU392
 1771 001c 8B19     		adds	r3, r1, r6
 376:Core/Src/ili9341.c **** 
ARM GAS  C:\Users\ADMINI~1\AppData\Local\Temp\cc7pslQz.s 			page 47


 1772              		.loc 1 376 7 view .LVU393
 1773 001e F02B     		cmp	r3, #240
 1774 0020 00DD     		ble	.L107
 1775              	.LVL177:
 1776              	.L101:
 382:Core/Src/ili9341.c **** 
 1777              		.loc 1 382 1 view .LVU394
 1778 0022 F8BD     		pop	{r3, r4, r5, r6, r7, pc}
 1779              	.LVL178:
 1780              	.L107:
 378:Core/Src/ili9341.c ****     ILI9341_SetAddressWindow(x, y, x+w-1, y+h-1);
 1781              		.loc 1 378 5 is_stmt 1 view .LVU395
 1782 0024 FFF7FEFF 		bl	ILI9341_Select
 1783              	.LVL179:
 379:Core/Src/ili9341.c ****     ILI9341_WriteData((uint8_t*)data, sizeof(uint16_t)*w*h);
 1784              		.loc 1 379 5 view .LVU396
 379:Core/Src/ili9341.c ****     ILI9341_WriteData((uint8_t*)data, sizeof(uint16_t)*w*h);
 1785              		.loc 1 379 37 is_stmt 0 view .LVU397
 1786 0028 E219     		adds	r2, r4, r7
 1787 002a 92B2     		uxth	r2, r2
 379:Core/Src/ili9341.c ****     ILI9341_WriteData((uint8_t*)data, sizeof(uint16_t)*w*h);
 1788              		.loc 1 379 44 view .LVU398
 1789 002c AB19     		adds	r3, r5, r6
 1790 002e 9BB2     		uxth	r3, r3
 379:Core/Src/ili9341.c ****     ILI9341_WriteData((uint8_t*)data, sizeof(uint16_t)*w*h);
 1791              		.loc 1 379 5 view .LVU399
 1792 0030 013B     		subs	r3, r3, #1
 1793 0032 013A     		subs	r2, r2, #1
 1794 0034 9BB2     		uxth	r3, r3
 1795 0036 92B2     		uxth	r2, r2
 1796 0038 2946     		mov	r1, r5
 1797 003a 2046     		mov	r0, r4
 1798 003c FFF7FEFF 		bl	ILI9341_SetAddressWindow
 1799              	.LVL180:
 380:Core/Src/ili9341.c ****     ILI9341_Unselect();
 1800              		.loc 1 380 5 is_stmt 1 view .LVU400
 380:Core/Src/ili9341.c ****     ILI9341_Unselect();
 1801              		.loc 1 380 57 is_stmt 0 view .LVU401
 1802 0040 06FB07F1 		mul	r1, r6, r7
 380:Core/Src/ili9341.c ****     ILI9341_Unselect();
 1803              		.loc 1 380 5 view .LVU402
 1804 0044 4900     		lsls	r1, r1, #1
 1805 0046 0698     		ldr	r0, [sp, #24]
 1806 0048 FFF7FEFF 		bl	ILI9341_WriteData
 1807              	.LVL181:
 381:Core/Src/ili9341.c **** }
 1808              		.loc 1 381 5 is_stmt 1 view .LVU403
 1809 004c FFF7FEFF 		bl	ILI9341_Unselect
 1810              	.LVL182:
 1811 0050 E7E7     		b	.L101
 1812              	.LVL183:
 1813              	.L104:
 1814              	.LCFI44:
 1815              		.cfi_def_cfa_offset 0
 1816              		.cfi_restore 3
 1817              		.cfi_restore 4
 1818              		.cfi_restore 5
ARM GAS  C:\Users\ADMINI~1\AppData\Local\Temp\cc7pslQz.s 			page 48


 1819              		.cfi_restore 6
 1820              		.cfi_restore 7
 1821              		.cfi_restore 14
 381:Core/Src/ili9341.c **** }
 1822              		.loc 1 381 5 is_stmt 0 view .LVU404
 1823 0052 7047     		bx	lr
 1824              		.cfi_endproc
 1825              	.LFE79:
 1827              		.section	.text.ILI9341_InvertColors,"ax",%progbits
 1828              		.align	1
 1829              		.global	ILI9341_InvertColors
 1830              		.syntax unified
 1831              		.thumb
 1832              		.thumb_func
 1834              	ILI9341_InvertColors:
 1835              	.LVL184:
 1836              	.LFB80:
 385:Core/Src/ili9341.c ****     ILI9341_Select();
 1837              		.loc 1 385 1 is_stmt 1 view -0
 1838              		.cfi_startproc
 1839              		@ args = 0, pretend = 0, frame = 0
 1840              		@ frame_needed = 0, uses_anonymous_args = 0
 385:Core/Src/ili9341.c ****     ILI9341_Select();
 1841              		.loc 1 385 1 is_stmt 0 view .LVU406
 1842 0000 10B5     		push	{r4, lr}
 1843              	.LCFI45:
 1844              		.cfi_def_cfa_offset 8
 1845              		.cfi_offset 4, -8
 1846              		.cfi_offset 14, -4
 1847 0002 0446     		mov	r4, r0
 386:Core/Src/ili9341.c ****     ILI9341_WriteCommand(invert ? 0x21 /* INVON */ : 0x20 /* INVOFF */);
 1848              		.loc 1 386 5 is_stmt 1 view .LVU407
 1849 0004 FFF7FEFF 		bl	ILI9341_Select
 1850              	.LVL185:
 387:Core/Src/ili9341.c ****     ILI9341_Unselect();
 1851              		.loc 1 387 5 view .LVU408
 1852 0008 2CB1     		cbz	r4, .L110
 1853 000a 2120     		movs	r0, #33
 1854              	.L109:
 387:Core/Src/ili9341.c ****     ILI9341_Unselect();
 1855              		.loc 1 387 5 is_stmt 0 discriminator 4 view .LVU409
 1856 000c FFF7FEFF 		bl	ILI9341_WriteCommand
 1857              	.LVL186:
 388:Core/Src/ili9341.c **** }
 1858              		.loc 1 388 5 is_stmt 1 discriminator 4 view .LVU410
 1859 0010 FFF7FEFF 		bl	ILI9341_Unselect
 1860              	.LVL187:
 389:Core/Src/ili9341.c **** 
 1861              		.loc 1 389 1 is_stmt 0 discriminator 4 view .LVU411
 1862 0014 10BD     		pop	{r4, pc}
 1863              	.L110:
 387:Core/Src/ili9341.c ****     ILI9341_Unselect();
 1864              		.loc 1 387 5 view .LVU412
 1865 0016 2020     		movs	r0, #32
 1866 0018 F8E7     		b	.L109
 1867              		.cfi_endproc
 1868              	.LFE80:
ARM GAS  C:\Users\ADMINI~1\AppData\Local\Temp\cc7pslQz.s 			page 49


 1870              		.section	.text.ILI9341_DrawTriangle,"ax",%progbits
 1871              		.align	1
 1872              		.global	ILI9341_DrawTriangle
 1873              		.syntax unified
 1874              		.thumb
 1875              		.thumb_func
 1877              	ILI9341_DrawTriangle:
 1878              	.LVL188:
 1879              	.LFB81:
 392:Core/Src/ili9341.c ****     ILI9341_DrawLine(x1, y1, x2, y2, color);
 1880              		.loc 1 392 1 is_stmt 1 view -0
 1881              		.cfi_startproc
 1882              		@ args = 12, pretend = 0, frame = 0
 1883              		@ frame_needed = 0, uses_anonymous_args = 0
 392:Core/Src/ili9341.c ****     ILI9341_DrawLine(x1, y1, x2, y2, color);
 1884              		.loc 1 392 1 is_stmt 0 view .LVU414
 1885 0000 2DE9F047 		push	{r4, r5, r6, r7, r8, r9, r10, lr}
 1886              	.LCFI46:
 1887              		.cfi_def_cfa_offset 32
 1888              		.cfi_offset 4, -32
 1889              		.cfi_offset 5, -28
 1890              		.cfi_offset 6, -24
 1891              		.cfi_offset 7, -20
 1892              		.cfi_offset 8, -16
 1893              		.cfi_offset 9, -12
 1894              		.cfi_offset 10, -8
 1895              		.cfi_offset 14, -4
 1896 0004 82B0     		sub	sp, sp, #8
 1897              	.LCFI47:
 1898              		.cfi_def_cfa_offset 40
 1899 0006 0446     		mov	r4, r0
 1900 0008 0D46     		mov	r5, r1
 1901 000a 1746     		mov	r7, r2
 1902 000c 9846     		mov	r8, r3
 1903 000e BDF82890 		ldrh	r9, [sp, #40]
 1904 0012 BDF82CA0 		ldrh	r10, [sp, #44]
 1905 0016 BDF83060 		ldrh	r6, [sp, #48]
 393:Core/Src/ili9341.c ****     ILI9341_DrawLine(x2, y2, x3, y3, color);
 1906              		.loc 1 393 5 is_stmt 1 view .LVU415
 1907 001a 0096     		str	r6, [sp]
 1908 001c FFF7FEFF 		bl	ILI9341_DrawLine
 1909              	.LVL189:
 394:Core/Src/ili9341.c ****     ILI9341_DrawLine(x3, y3, x1, y1, color);
 1910              		.loc 1 394 5 view .LVU416
 1911 0020 0096     		str	r6, [sp]
 1912 0022 5346     		mov	r3, r10
 1913 0024 4A46     		mov	r2, r9
 1914 0026 4146     		mov	r1, r8
 1915 0028 3846     		mov	r0, r7
 1916 002a FFF7FEFF 		bl	ILI9341_DrawLine
 1917              	.LVL190:
 395:Core/Src/ili9341.c **** }
 1918              		.loc 1 395 5 view .LVU417
 1919 002e 0096     		str	r6, [sp]
 1920 0030 2B46     		mov	r3, r5
 1921 0032 2246     		mov	r2, r4
 1922 0034 5146     		mov	r1, r10
ARM GAS  C:\Users\ADMINI~1\AppData\Local\Temp\cc7pslQz.s 			page 50


 1923 0036 4846     		mov	r0, r9
 1924 0038 FFF7FEFF 		bl	ILI9341_DrawLine
 1925              	.LVL191:
 396:Core/Src/ili9341.c **** 
 1926              		.loc 1 396 1 is_stmt 0 view .LVU418
 1927 003c 02B0     		add	sp, sp, #8
 1928              	.LCFI48:
 1929              		.cfi_def_cfa_offset 32
 1930              		@ sp needed
 1931 003e BDE8F087 		pop	{r4, r5, r6, r7, r8, r9, r10, pc}
 396:Core/Src/ili9341.c **** 
 1932              		.loc 1 396 1 view .LVU419
 1933              		.cfi_endproc
 1934              	.LFE81:
 1936              		.section	.text.ILI9341_FillTriangle,"ax",%progbits
 1937              		.align	1
 1938              		.global	ILI9341_FillTriangle
 1939              		.syntax unified
 1940              		.thumb
 1941              		.thumb_func
 1943              	ILI9341_FillTriangle:
 1944              	.LVL192:
 1945              	.LFB83:
 407:Core/Src/ili9341.c ****     uint16_t a, b, y, last;
 1946              		.loc 1 407 1 is_stmt 1 view -0
 1947              		.cfi_startproc
 1948              		@ args = 12, pretend = 0, frame = 32
 1949              		@ frame_needed = 0, uses_anonymous_args = 0
 407:Core/Src/ili9341.c ****     uint16_t a, b, y, last;
 1950              		.loc 1 407 1 is_stmt 0 view .LVU421
 1951 0000 2DE9F04F 		push	{r4, r5, r6, r7, r8, r9, r10, fp, lr}
 1952              	.LCFI49:
 1953              		.cfi_def_cfa_offset 36
 1954              		.cfi_offset 4, -36
 1955              		.cfi_offset 5, -32
 1956              		.cfi_offset 6, -28
 1957              		.cfi_offset 7, -24
 1958              		.cfi_offset 8, -20
 1959              		.cfi_offset 9, -16
 1960              		.cfi_offset 10, -12
 1961              		.cfi_offset 11, -8
 1962              		.cfi_offset 14, -4
 1963 0004 8BB0     		sub	sp, sp, #44
 1964              	.LCFI50:
 1965              		.cfi_def_cfa_offset 80
 1966 0006 BDF85880 		ldrh	r8, [sp, #88]
 1967 000a ADF81E00 		strh	r0, [sp, #30]	@ movhi
 1968 000e ADF81C10 		strh	r1, [sp, #28]	@ movhi
 1969 0012 ADF81A20 		strh	r2, [sp, #26]	@ movhi
 1970 0016 ADF81830 		strh	r3, [sp, #24]	@ movhi
 408:Core/Src/ili9341.c **** 	int dx01, dy01, dx02, dy02, dx12, dy12;
 1971              		.loc 1 408 5 is_stmt 1 view .LVU422
 409:Core/Src/ili9341.c **** 	long sa = 0;
 1972              		.loc 1 409 2 view .LVU423
 410:Core/Src/ili9341.c **** 	long sb = 0;
 1973              		.loc 1 410 2 view .LVU424
 1974              	.LVL193:
ARM GAS  C:\Users\ADMINI~1\AppData\Local\Temp\cc7pslQz.s 			page 51


 411:Core/Src/ili9341.c **** 
 1975              		.loc 1 411 2 view .LVU425
 413:Core/Src/ili9341.c **** 	{
 1976              		.loc 1 413 5 view .LVU426
 413:Core/Src/ili9341.c **** 	{
 1977              		.loc 1 413 12 is_stmt 0 view .LVU427
 1978 001a 8AB2     		uxth	r2, r1
 1979              	.LVL194:
 413:Core/Src/ili9341.c **** 	{
 1980              		.loc 1 413 12 view .LVU428
 1981 001c 9BB2     		uxth	r3, r3
 1982              	.LVL195:
 413:Core/Src/ili9341.c **** 	{
 1983              		.loc 1 413 8 view .LVU429
 1984 001e 9A42     		cmp	r2, r3
 1985 0020 32D8     		bhi	.L132
 1986              	.LVL196:
 1987              	.L115:
 418:Core/Src/ili9341.c **** 	{
 1988              		.loc 1 418 5 is_stmt 1 view .LVU430
 418:Core/Src/ili9341.c **** 	{
 1989              		.loc 1 418 12 is_stmt 0 view .LVU431
 1990 0022 BDF81820 		ldrh	r2, [sp, #24]
 1991 0026 BDF85430 		ldrh	r3, [sp, #84]
 418:Core/Src/ili9341.c **** 	{
 1992              		.loc 1 418 8 view .LVU432
 1993 002a 9A42     		cmp	r2, r3
 1994 002c 37D8     		bhi	.L133
 1995              	.L116:
 423:Core/Src/ili9341.c **** 	{
 1996              		.loc 1 423 5 is_stmt 1 view .LVU433
 423:Core/Src/ili9341.c **** 	{
 1997              		.loc 1 423 12 is_stmt 0 view .LVU434
 1998 002e BDF81C20 		ldrh	r2, [sp, #28]
 1999 0032 BDF81830 		ldrh	r3, [sp, #24]
 423:Core/Src/ili9341.c **** 	{
 2000              		.loc 1 423 8 view .LVU435
 2001 0036 9A42     		cmp	r2, r3
 2002 0038 3BD8     		bhi	.L134
 2003              	.L117:
 429:Core/Src/ili9341.c **** 	{ 
 2004              		.loc 1 429 5 is_stmt 1 view .LVU436
 429:Core/Src/ili9341.c **** 	{ 
 2005              		.loc 1 429 12 is_stmt 0 view .LVU437
 2006 003a BDF81C40 		ldrh	r4, [sp, #28]
 2007 003e BDF85430 		ldrh	r3, [sp, #84]
 429:Core/Src/ili9341.c **** 	{ 
 2008              		.loc 1 429 8 view .LVU438
 2009 0042 9C42     		cmp	r4, r3
 2010 0044 40D0     		beq	.L135
 455:Core/Src/ili9341.c **** 	dy01 = y1 - y0;
 2011              		.loc 1 455 2 is_stmt 1 view .LVU439
 455:Core/Src/ili9341.c **** 	dy01 = y1 - y0;
 2012              		.loc 1 455 12 is_stmt 0 view .LVU440
 2013 0046 BDF81A20 		ldrh	r2, [sp, #26]
 2014 004a BDF81E70 		ldrh	r7, [sp, #30]
 455:Core/Src/ili9341.c **** 	dy01 = y1 - y0;
ARM GAS  C:\Users\ADMINI~1\AppData\Local\Temp\cc7pslQz.s 			page 52


 2015              		.loc 1 455 7 view .LVU441
 2016 004e D11B     		subs	r1, r2, r7
 2017 0050 0391     		str	r1, [sp, #12]
 2018              	.LVL197:
 456:Core/Src/ili9341.c **** 	dx02 = x2 - x0;
 2019              		.loc 1 456 2 is_stmt 1 view .LVU442
 456:Core/Src/ili9341.c **** 	dx02 = x2 - x0;
 2020              		.loc 1 456 12 is_stmt 0 view .LVU443
 2021 0052 BDF818A0 		ldrh	r10, [sp, #24]
 456:Core/Src/ili9341.c **** 	dx02 = x2 - x0;
 2022              		.loc 1 456 7 view .LVU444
 2023 0056 AAEB0401 		sub	r1, r10, r4
 2024              	.LVL198:
 457:Core/Src/ili9341.c **** 	dy02 = y2 - y0;
 2025              		.loc 1 457 2 is_stmt 1 view .LVU445
 457:Core/Src/ili9341.c **** 	dy02 = y2 - y0;
 2026              		.loc 1 457 12 is_stmt 0 view .LVU446
 2027 005a BDF850B0 		ldrh	fp, [sp, #80]
 457:Core/Src/ili9341.c **** 	dy02 = y2 - y0;
 2028              		.loc 1 457 7 view .LVU447
 2029 005e ABEB0707 		sub	r7, fp, r7
 2030              	.LVL199:
 458:Core/Src/ili9341.c **** 	dx12 = x2 - x1;
 2031              		.loc 1 458 2 is_stmt 1 view .LVU448
 458:Core/Src/ili9341.c **** 	dx12 = x2 - x1;
 2032              		.loc 1 458 7 is_stmt 0 view .LVU449
 2033 0062 A3EB0409 		sub	r9, r3, r4
 2034              	.LVL200:
 459:Core/Src/ili9341.c **** 	dy12 = y2 - y1;
 2035              		.loc 1 459 2 is_stmt 1 view .LVU450
 459:Core/Src/ili9341.c **** 	dy12 = y2 - y1;
 2036              		.loc 1 459 7 is_stmt 0 view .LVU451
 2037 0066 ABEB020B 		sub	fp, fp, r2
 2038              	.LVL201:
 460:Core/Src/ili9341.c **** 	
 2039              		.loc 1 460 2 is_stmt 1 view .LVU452
 460:Core/Src/ili9341.c **** 	
 2040              		.loc 1 460 7 is_stmt 0 view .LVU453
 2041 006a A3EB0A02 		sub	r2, r3, r10
 2042 006e 0492     		str	r2, [sp, #16]
 2043              	.LVL202:
 462:Core/Src/ili9341.c **** 	{
 2044              		.loc 1 462 2 is_stmt 1 view .LVU454
 462:Core/Src/ili9341.c **** 	{
 2045              		.loc 1 462 4 is_stmt 0 view .LVU455
 2046 0070 5345     		cmp	r3, r10
 2047 0072 03D0     		beq	.L124
 468:Core/Src/ili9341.c **** 	}
 2048              		.loc 1 468 3 is_stmt 1 view .LVU456
 468:Core/Src/ili9341.c **** 	}
 2049              		.loc 1 468 8 is_stmt 0 view .LVU457
 2050 0074 0AF1FF3A 		add	r10, r10, #-1
 2051 0078 1FFA8AFA 		uxth	r10, r10
 2052              	.LVL203:
 2053              	.L124:
 471:Core/Src/ili9341.c **** 	{
 2054              		.loc 1 471 2 is_stmt 1 view .LVU458
ARM GAS  C:\Users\ADMINI~1\AppData\Local\Temp\cc7pslQz.s 			page 53


 411:Core/Src/ili9341.c **** 
 2055              		.loc 1 411 7 is_stmt 0 view .LVU459
 2056 007c 0025     		movs	r5, #0
 410:Core/Src/ili9341.c **** 	long sb = 0;
 2057              		.loc 1 410 7 view .LVU460
 2058 007e 2E46     		mov	r6, r5
 2059 0080 CDF814B0 		str	fp, [sp, #20]
 2060 0084 8B46     		mov	fp, r1
 2061              	.LVL204:
 471:Core/Src/ili9341.c **** 	{
 2062              		.loc 1 471 2 view .LVU461
 2063 0086 60E0     		b	.L125
 2064              	.LVL205:
 2065              	.L132:
 415:Core/Src/ili9341.c **** 		_swap(&x0,&x1);
 2066              		.loc 1 415 9 is_stmt 1 view .LVU462
 2067 0088 06A9     		add	r1, sp, #24
 2068              	.LVL206:
 415:Core/Src/ili9341.c **** 		_swap(&x0,&x1);
 2069              		.loc 1 415 9 is_stmt 0 view .LVU463
 2070 008a 07A8     		add	r0, sp, #28
 2071              	.LVL207:
 415:Core/Src/ili9341.c **** 		_swap(&x0,&x1);
 2072              		.loc 1 415 9 view .LVU464
 2073 008c FFF7FEFF 		bl	_swap
 2074              	.LVL208:
 416:Core/Src/ili9341.c ****     }
 2075              		.loc 1 416 3 is_stmt 1 view .LVU465
 2076 0090 0DF11A01 		add	r1, sp, #26
 2077 0094 0DF11E00 		add	r0, sp, #30
 2078 0098 FFF7FEFF 		bl	_swap
 2079              	.LVL209:
 2080 009c C1E7     		b	.L115
 2081              	.L133:
 420:Core/Src/ili9341.c **** 		_swap(&x2,&x1);
 2082              		.loc 1 420 9 view .LVU466
 2083 009e 06A9     		add	r1, sp, #24
 2084 00a0 15A8     		add	r0, sp, #84
 2085 00a2 FFF7FEFF 		bl	_swap
 2086              	.LVL210:
 421:Core/Src/ili9341.c ****     }
 2087              		.loc 1 421 3 view .LVU467
 2088 00a6 0DF11A01 		add	r1, sp, #26
 2089 00aa 14A8     		add	r0, sp, #80
 2090              	.LVL211:
 421:Core/Src/ili9341.c ****     }
 2091              		.loc 1 421 3 is_stmt 0 view .LVU468
 2092 00ac FFF7FEFF 		bl	_swap
 2093              	.LVL212:
 421:Core/Src/ili9341.c ****     }
 2094              		.loc 1 421 3 view .LVU469
 2095 00b0 BDE7     		b	.L116
 2096              	.L134:
 425:Core/Src/ili9341.c **** 		_swap(&x0,&x1);
 2097              		.loc 1 425 9 is_stmt 1 view .LVU470
 2098 00b2 06A9     		add	r1, sp, #24
 2099 00b4 07A8     		add	r0, sp, #28
ARM GAS  C:\Users\ADMINI~1\AppData\Local\Temp\cc7pslQz.s 			page 54


 2100 00b6 FFF7FEFF 		bl	_swap
 2101              	.LVL213:
 426:Core/Src/ili9341.c ****     }
 2102              		.loc 1 426 3 view .LVU471
 2103 00ba 0DF11A01 		add	r1, sp, #26
 2104 00be 0DF11E00 		add	r0, sp, #30
 2105 00c2 FFF7FEFF 		bl	_swap
 2106              	.LVL214:
 2107 00c6 B8E7     		b	.L117
 2108              	.L135:
 431:Core/Src/ili9341.c **** 		if(x1 < a)
 2109              		.loc 1 431 3 view .LVU472
 431:Core/Src/ili9341.c **** 		if(x1 < a)
 2110              		.loc 1 431 9 is_stmt 0 view .LVU473
 2111 00c8 BDF81E30 		ldrh	r3, [sp, #30]
 2112 00cc ADF82430 		strh	r3, [sp, #36]	@ movhi
 431:Core/Src/ili9341.c **** 		if(x1 < a)
 2113              		.loc 1 431 5 view .LVU474
 2114 00d0 ADF82630 		strh	r3, [sp, #38]	@ movhi
 432:Core/Src/ili9341.c ****         {
 2115              		.loc 1 432 3 is_stmt 1 view .LVU475
 432:Core/Src/ili9341.c ****         {
 2116              		.loc 1 432 9 is_stmt 0 view .LVU476
 2117 00d4 BDF81A20 		ldrh	r2, [sp, #26]
 432:Core/Src/ili9341.c ****         {
 2118              		.loc 1 432 5 view .LVU477
 2119 00d8 9342     		cmp	r3, r2
 2120 00da 1AD9     		bls	.L119
 434:Core/Src/ili9341.c ****         }
 2121              		.loc 1 434 4 is_stmt 1 view .LVU478
 434:Core/Src/ili9341.c ****         }
 2122              		.loc 1 434 6 is_stmt 0 view .LVU479
 2123 00dc ADF82620 		strh	r2, [sp, #38]	@ movhi
 2124              	.L120:
 441:Core/Src/ili9341.c ****         {
 2125              		.loc 1 441 9 is_stmt 1 view .LVU480
 441:Core/Src/ili9341.c ****         {
 2126              		.loc 1 441 16 is_stmt 0 view .LVU481
 2127 00e0 BDF85030 		ldrh	r3, [sp, #80]
 2128 00e4 BDF82620 		ldrh	r2, [sp, #38]
 441:Core/Src/ili9341.c ****         {
 2129              		.loc 1 441 12 view .LVU482
 2130 00e8 9342     		cmp	r3, r2
 2131 00ea 17D2     		bcs	.L121
 443:Core/Src/ili9341.c ****         }
 2132              		.loc 1 443 13 is_stmt 1 view .LVU483
 443:Core/Src/ili9341.c ****         }
 2133              		.loc 1 443 15 is_stmt 0 view .LVU484
 2134 00ec ADF82630 		strh	r3, [sp, #38]	@ movhi
 2135              	.L122:
 450:Core/Src/ili9341.c **** 
 2136              		.loc 1 450 3 is_stmt 1 view .LVU485
 2137 00f0 BDF82600 		ldrh	r0, [sp, #38]
 450:Core/Src/ili9341.c **** 
 2138              		.loc 1 450 34 is_stmt 0 view .LVU486
 2139 00f4 BDF82420 		ldrh	r2, [sp, #36]
 2140 00f8 121A     		subs	r2, r2, r0
ARM GAS  C:\Users\ADMINI~1\AppData\Local\Temp\cc7pslQz.s 			page 55


 2141 00fa 92B2     		uxth	r2, r2
 450:Core/Src/ili9341.c **** 
 2142              		.loc 1 450 3 view .LVU487
 2143 00fc 0132     		adds	r2, r2, #1
 2144 00fe CDF80080 		str	r8, [sp]
 2145 0102 0123     		movs	r3, #1
 2146 0104 92B2     		uxth	r2, r2
 2147 0106 2146     		mov	r1, r4
 2148 0108 FFF7FEFF 		bl	ILI9341_FillRectangle
 2149              	.LVL215:
 452:Core/Src/ili9341.c **** 	}
 2150              		.loc 1 452 9 is_stmt 1 view .LVU488
 2151              	.L114:
 499:Core/Src/ili9341.c **** 
 2152              		.loc 1 499 1 is_stmt 0 view .LVU489
 2153 010c 0BB0     		add	sp, sp, #44
 2154              	.LCFI51:
 2155              		.cfi_remember_state
 2156              		.cfi_def_cfa_offset 36
 2157              		@ sp needed
 2158 010e BDE8F08F 		pop	{r4, r5, r6, r7, r8, r9, r10, fp, pc}
 2159              	.LVL216:
 2160              	.L119:
 2161              	.LCFI52:
 2162              		.cfi_restore_state
 436:Core/Src/ili9341.c ****         {
 2163              		.loc 1 436 14 is_stmt 1 view .LVU490
 436:Core/Src/ili9341.c ****         {
 2164              		.loc 1 436 17 is_stmt 0 view .LVU491
 2165 0112 9342     		cmp	r3, r2
 2166 0114 E4D2     		bcs	.L120
 438:Core/Src/ili9341.c ****         }
 2167              		.loc 1 438 13 is_stmt 1 view .LVU492
 438:Core/Src/ili9341.c ****         }
 2168              		.loc 1 438 15 is_stmt 0 view .LVU493
 2169 0116 ADF82420 		strh	r2, [sp, #36]	@ movhi
 2170 011a E1E7     		b	.L120
 2171              	.L121:
 445:Core/Src/ili9341.c ****         {
 2172              		.loc 1 445 14 is_stmt 1 view .LVU494
 445:Core/Src/ili9341.c ****         {
 2173              		.loc 1 445 21 is_stmt 0 view .LVU495
 2174 011c BDF82420 		ldrh	r2, [sp, #36]
 445:Core/Src/ili9341.c ****         {
 2175              		.loc 1 445 17 view .LVU496
 2176 0120 9342     		cmp	r3, r2
 2177 0122 E5D9     		bls	.L122
 447:Core/Src/ili9341.c ****         }
 2178              		.loc 1 447 13 is_stmt 1 view .LVU497
 447:Core/Src/ili9341.c ****         }
 2179              		.loc 1 447 15 is_stmt 0 view .LVU498
 2180 0124 ADF82430 		strh	r3, [sp, #36]	@ movhi
 2181 0128 E2E7     		b	.L122
 2182              	.LVL217:
 2183              	.L126:
 481:Core/Src/ili9341.c **** 	}
 2184              		.loc 1 481 3 is_stmt 1 discriminator 2 view .LVU499
ARM GAS  C:\Users\ADMINI~1\AppData\Local\Temp\cc7pslQz.s 			page 56


 2185 012a BDF82600 		ldrh	r0, [sp, #38]
 481:Core/Src/ili9341.c **** 	}
 2186              		.loc 1 481 33 is_stmt 0 discriminator 2 view .LVU500
 2187 012e BDF82420 		ldrh	r2, [sp, #36]
 2188 0132 121A     		subs	r2, r2, r0
 2189 0134 92B2     		uxth	r2, r2
 481:Core/Src/ili9341.c **** 	}
 2190              		.loc 1 481 3 discriminator 2 view .LVU501
 2191 0136 0132     		adds	r2, r2, #1
 2192 0138 CDF80080 		str	r8, [sp]
 2193 013c 0123     		movs	r3, #1
 2194 013e 92B2     		uxth	r2, r2
 2195 0140 2146     		mov	r1, r4
 2196 0142 FFF7FEFF 		bl	ILI9341_FillRectangle
 2197              	.LVL218:
 471:Core/Src/ili9341.c **** 	{
 2198              		.loc 1 471 25 is_stmt 1 discriminator 2 view .LVU502
 471:Core/Src/ili9341.c **** 	{
 2199              		.loc 1 471 26 is_stmt 0 discriminator 2 view .LVU503
 2200 0146 0134     		adds	r4, r4, #1
 2201              	.LVL219:
 471:Core/Src/ili9341.c **** 	{
 2202              		.loc 1 471 26 discriminator 2 view .LVU504
 2203 0148 A4B2     		uxth	r4, r4
 2204              	.LVL220:
 2205              	.L125:
 471:Core/Src/ili9341.c **** 	{
 2206              		.loc 1 471 14 is_stmt 1 discriminator 1 view .LVU505
 471:Core/Src/ili9341.c **** 	{
 2207              		.loc 1 471 2 is_stmt 0 discriminator 1 view .LVU506
 2208 014a 5445     		cmp	r4, r10
 2209 014c 18D8     		bhi	.L136
 473:Core/Src/ili9341.c **** 		b = x0 + sb / dy02;
 2210              		.loc 1 473 3 is_stmt 1 view .LVU507
 473:Core/Src/ili9341.c **** 		b = x0 + sb / dy02;
 2211              		.loc 1 473 15 is_stmt 0 view .LVU508
 2212 014e 96FBFBF2 		sdiv	r2, r6, fp
 473:Core/Src/ili9341.c **** 		b = x0 + sb / dy02;
 2213              		.loc 1 473 10 view .LVU509
 2214 0152 BDF81E30 		ldrh	r3, [sp, #30]
 2215 0156 1A44     		add	r2, r2, r3
 2216 0158 92B2     		uxth	r2, r2
 473:Core/Src/ili9341.c **** 		b = x0 + sb / dy02;
 2217              		.loc 1 473 5 view .LVU510
 2218 015a ADF82620 		strh	r2, [sp, #38]	@ movhi
 474:Core/Src/ili9341.c **** 		sa += dx01;
 2219              		.loc 1 474 3 is_stmt 1 view .LVU511
 474:Core/Src/ili9341.c **** 		sa += dx01;
 2220              		.loc 1 474 15 is_stmt 0 view .LVU512
 2221 015e 95FBF9F1 		sdiv	r1, r5, r9
 474:Core/Src/ili9341.c **** 		sa += dx01;
 2222              		.loc 1 474 10 view .LVU513
 2223 0162 0B44     		add	r3, r3, r1
 2224 0164 9BB2     		uxth	r3, r3
 474:Core/Src/ili9341.c **** 		sa += dx01;
 2225              		.loc 1 474 5 view .LVU514
 2226 0166 ADF82430 		strh	r3, [sp, #36]	@ movhi
ARM GAS  C:\Users\ADMINI~1\AppData\Local\Temp\cc7pslQz.s 			page 57


 475:Core/Src/ili9341.c ****         sb += dx02;
 2227              		.loc 1 475 3 is_stmt 1 view .LVU515
 475:Core/Src/ili9341.c ****         sb += dx02;
 2228              		.loc 1 475 6 is_stmt 0 view .LVU516
 2229 016a 0399     		ldr	r1, [sp, #12]
 2230 016c 0E44     		add	r6, r6, r1
 2231              	.LVL221:
 476:Core/Src/ili9341.c ****         if(a > b)
 2232              		.loc 1 476 9 is_stmt 1 view .LVU517
 476:Core/Src/ili9341.c ****         if(a > b)
 2233              		.loc 1 476 12 is_stmt 0 view .LVU518
 2234 016e 3D44     		add	r5, r5, r7
 2235              	.LVL222:
 477:Core/Src/ili9341.c ****         {
 2236              		.loc 1 477 9 is_stmt 1 view .LVU519
 477:Core/Src/ili9341.c ****         {
 2237              		.loc 1 477 11 is_stmt 0 view .LVU520
 2238 0170 9A42     		cmp	r2, r3
 2239 0172 DAD9     		bls	.L126
 479:Core/Src/ili9341.c **** 		}
 2240              		.loc 1 479 4 is_stmt 1 view .LVU521
 2241 0174 09A9     		add	r1, sp, #36
 2242 0176 0DF12600 		add	r0, sp, #38
 2243 017a FFF7FEFF 		bl	_swap
 2244              	.LVL223:
 2245 017e D4E7     		b	.L126
 2246              	.L136:
 484:Core/Src/ili9341.c **** 	sb = dx02 * (y - y0);
 2247              		.loc 1 484 17 is_stmt 0 view .LVU522
 2248 0180 DDF814B0 		ldr	fp, [sp, #20]
 2249              	.LVL224:
 484:Core/Src/ili9341.c **** 	sb = dx02 * (y - y0);
 2250              		.loc 1 484 2 is_stmt 1 view .LVU523
 484:Core/Src/ili9341.c **** 	sb = dx02 * (y - y0);
 2251              		.loc 1 484 17 is_stmt 0 view .LVU524
 2252 0184 BDF81860 		ldrh	r6, [sp, #24]
 2253              	.LVL225:
 484:Core/Src/ili9341.c **** 	sb = dx02 * (y - y0);
 2254              		.loc 1 484 17 view .LVU525
 2255 0188 A61B     		subs	r6, r4, r6
 484:Core/Src/ili9341.c **** 	sb = dx02 * (y - y0);
 2256              		.loc 1 484 5 view .LVU526
 2257 018a 0BFB06F6 		mul	r6, fp, r6
 2258              	.LVL226:
 485:Core/Src/ili9341.c **** 
 2259              		.loc 1 485 2 is_stmt 1 view .LVU527
 485:Core/Src/ili9341.c **** 
 2260              		.loc 1 485 17 is_stmt 0 view .LVU528
 2261 018e BDF81C50 		ldrh	r5, [sp, #28]
 2262              	.LVL227:
 485:Core/Src/ili9341.c **** 
 2263              		.loc 1 485 17 view .LVU529
 2264 0192 651B     		subs	r5, r4, r5
 485:Core/Src/ili9341.c **** 
 2265              		.loc 1 485 5 view .LVU530
 2266 0194 07FB05F5 		mul	r5, r7, r5
 2267              	.LVL228:
ARM GAS  C:\Users\ADMINI~1\AppData\Local\Temp\cc7pslQz.s 			page 58


 487:Core/Src/ili9341.c **** 	{
 2268              		.loc 1 487 2 is_stmt 1 view .LVU531
 2269 0198 DDF810A0 		ldr	r10, [sp, #16]
 2270              	.LVL229:
 487:Core/Src/ili9341.c **** 	{
 2271              		.loc 1 487 2 is_stmt 0 view .LVU532
 2272 019c 0FE0     		b	.L128
 2273              	.L129:
 497:Core/Src/ili9341.c **** 	}
 2274              		.loc 1 497 3 is_stmt 1 view .LVU533
 2275 019e BDF82600 		ldrh	r0, [sp, #38]
 497:Core/Src/ili9341.c **** 	}
 2276              		.loc 1 497 33 is_stmt 0 view .LVU534
 2277 01a2 BDF82420 		ldrh	r2, [sp, #36]
 2278 01a6 121A     		subs	r2, r2, r0
 2279 01a8 92B2     		uxth	r2, r2
 497:Core/Src/ili9341.c **** 	}
 2280              		.loc 1 497 3 view .LVU535
 2281 01aa 0132     		adds	r2, r2, #1
 2282 01ac CDF80080 		str	r8, [sp]
 2283 01b0 0123     		movs	r3, #1
 2284 01b2 92B2     		uxth	r2, r2
 2285 01b4 2146     		mov	r1, r4
 2286 01b6 FFF7FEFF 		bl	ILI9341_FillRectangle
 2287              	.LVL230:
 487:Core/Src/ili9341.c **** 	{
 2288              		.loc 1 487 17 is_stmt 1 view .LVU536
 487:Core/Src/ili9341.c **** 	{
 2289              		.loc 1 487 18 is_stmt 0 view .LVU537
 2290 01ba 0134     		adds	r4, r4, #1
 2291              	.LVL231:
 487:Core/Src/ili9341.c **** 	{
 2292              		.loc 1 487 18 view .LVU538
 2293 01bc A4B2     		uxth	r4, r4
 2294              	.LVL232:
 2295              	.L128:
 487:Core/Src/ili9341.c **** 	{
 2296              		.loc 1 487 8 is_stmt 1 discriminator 1 view .LVU539
 487:Core/Src/ili9341.c **** 	{
 2297              		.loc 1 487 10 is_stmt 0 discriminator 1 view .LVU540
 2298 01be BDF85430 		ldrh	r3, [sp, #84]
 487:Core/Src/ili9341.c **** 	{
 2299              		.loc 1 487 2 discriminator 1 view .LVU541
 2300 01c2 A342     		cmp	r3, r4
 2301 01c4 A2D3     		bcc	.L114
 489:Core/Src/ili9341.c **** 		b = x0 + sb / dy02;
 2302              		.loc 1 489 3 is_stmt 1 view .LVU542
 489:Core/Src/ili9341.c **** 		b = x0 + sb / dy02;
 2303              		.loc 1 489 15 is_stmt 0 view .LVU543
 2304 01c6 96FBFAF2 		sdiv	r2, r6, r10
 489:Core/Src/ili9341.c **** 		b = x0 + sb / dy02;
 2305              		.loc 1 489 10 view .LVU544
 2306 01ca BDF81A30 		ldrh	r3, [sp, #26]
 2307 01ce 1A44     		add	r2, r2, r3
 2308 01d0 92B2     		uxth	r2, r2
 489:Core/Src/ili9341.c **** 		b = x0 + sb / dy02;
 2309              		.loc 1 489 5 view .LVU545
ARM GAS  C:\Users\ADMINI~1\AppData\Local\Temp\cc7pslQz.s 			page 59


 2310 01d2 ADF82620 		strh	r2, [sp, #38]	@ movhi
 490:Core/Src/ili9341.c **** 		sa += dx12;
 2311              		.loc 1 490 3 is_stmt 1 view .LVU546
 490:Core/Src/ili9341.c **** 		sa += dx12;
 2312              		.loc 1 490 15 is_stmt 0 view .LVU547
 2313 01d6 95FBF9F3 		sdiv	r3, r5, r9
 490:Core/Src/ili9341.c **** 		sa += dx12;
 2314              		.loc 1 490 10 view .LVU548
 2315 01da BDF81E10 		ldrh	r1, [sp, #30]
 2316 01de 0B44     		add	r3, r3, r1
 2317 01e0 9BB2     		uxth	r3, r3
 490:Core/Src/ili9341.c **** 		sa += dx12;
 2318              		.loc 1 490 5 view .LVU549
 2319 01e2 ADF82430 		strh	r3, [sp, #36]	@ movhi
 491:Core/Src/ili9341.c **** 		sb += dx02;
 2320              		.loc 1 491 3 is_stmt 1 view .LVU550
 491:Core/Src/ili9341.c **** 		sb += dx02;
 2321              		.loc 1 491 6 is_stmt 0 view .LVU551
 2322 01e6 5E44     		add	r6, r6, fp
 2323              	.LVL233:
 492:Core/Src/ili9341.c **** 		if(a > b)
 2324              		.loc 1 492 3 is_stmt 1 view .LVU552
 492:Core/Src/ili9341.c **** 		if(a > b)
 2325              		.loc 1 492 6 is_stmt 0 view .LVU553
 2326 01e8 3D44     		add	r5, r5, r7
 2327              	.LVL234:
 493:Core/Src/ili9341.c **** 		{
 2328              		.loc 1 493 3 is_stmt 1 view .LVU554
 493:Core/Src/ili9341.c **** 		{
 2329              		.loc 1 493 5 is_stmt 0 view .LVU555
 2330 01ea 9A42     		cmp	r2, r3
 2331 01ec D7D9     		bls	.L129
 495:Core/Src/ili9341.c **** 		}
 2332              		.loc 1 495 4 is_stmt 1 view .LVU556
 2333 01ee 09A9     		add	r1, sp, #36
 2334 01f0 0DF12600 		add	r0, sp, #38
 2335 01f4 FFF7FEFF 		bl	_swap
 2336              	.LVL235:
 2337 01f8 D1E7     		b	.L129
 2338              		.cfi_endproc
 2339              	.LFE83:
 2341              		.section	.text.ILI9341_DrawCircle,"ax",%progbits
 2342              		.align	1
 2343              		.global	ILI9341_DrawCircle
 2344              		.syntax unified
 2345              		.thumb
 2346              		.thumb_func
 2348              	ILI9341_DrawCircle:
 2349              	.LVL236:
 2350              	.LFB85:
 514:Core/Src/ili9341.c **** 
 515:Core/Src/ili9341.c **** void ILI9341_DrawCircle(uint16_t x, uint16_t y, uint16_t r, uint16_t color)
 516:Core/Src/ili9341.c **** {
 2351              		.loc 1 516 1 view -0
 2352              		.cfi_startproc
 2353              		@ args = 0, pretend = 0, frame = 8
 2354              		@ frame_needed = 0, uses_anonymous_args = 0
ARM GAS  C:\Users\ADMINI~1\AppData\Local\Temp\cc7pslQz.s 			page 60


 2355              		.loc 1 516 1 is_stmt 0 view .LVU558
 2356 0000 2DE9F04F 		push	{r4, r5, r6, r7, r8, r9, r10, fp, lr}
 2357              	.LCFI53:
 2358              		.cfi_def_cfa_offset 36
 2359              		.cfi_offset 4, -36
 2360              		.cfi_offset 5, -32
 2361              		.cfi_offset 6, -28
 2362              		.cfi_offset 7, -24
 2363              		.cfi_offset 8, -20
 2364              		.cfi_offset 9, -16
 2365              		.cfi_offset 10, -12
 2366              		.cfi_offset 11, -8
 2367              		.cfi_offset 14, -4
 2368 0004 85B0     		sub	sp, sp, #20
 2369              	.LCFI54:
 2370              		.cfi_def_cfa_offset 56
 2371 0006 8246     		mov	r10, r0
 2372 0008 0291     		str	r1, [sp, #8]
 2373 000a 9146     		mov	r9, r2
 2374 000c 9B46     		mov	fp, r3
 517:Core/Src/ili9341.c ****     int a, b, pre_b;
 2375              		.loc 1 517 5 is_stmt 1 view .LVU559
 518:Core/Src/ili9341.c ****     a = r-1;
 2376              		.loc 1 518 5 view .LVU560
 2377              		.loc 1 518 7 is_stmt 0 view .LVU561
 2378 000e 531E     		subs	r3, r2, #1
 2379              	.LVL237:
 2380              		.loc 1 518 7 view .LVU562
 2381 0010 0393     		str	r3, [sp, #12]
 2382              	.LVL238:
 519:Core/Src/ili9341.c ****     b = 0;
 2383              		.loc 1 519 5 is_stmt 1 view .LVU563
 520:Core/Src/ili9341.c ****     pre_b = 0;
 2384              		.loc 1 520 5 view .LVU564
 521:Core/Src/ili9341.c **** 
 522:Core/Src/ili9341.c ****     for(; a >= -r; a--)
 2385              		.loc 1 522 5 view .LVU565
 518:Core/Src/ili9341.c ****     b = 0;
 2386              		.loc 1 518 7 is_stmt 0 view .LVU566
 2387 0012 1E46     		mov	r6, r3
 520:Core/Src/ili9341.c ****     pre_b = 0;
 2388              		.loc 1 520 11 view .LVU567
 2389 0014 4FF00008 		mov	r8, #0
 2390              		.loc 1 522 5 view .LVU568
 2391 0018 1FE0     		b	.L138
 2392              	.LVL239:
 2393              	.L139:
 523:Core/Src/ili9341.c ****     {   
 524:Core/Src/ili9341.c ****         b = sqrt_t(r*r - a*a);
 525:Core/Src/ili9341.c ****         b = (b > (r-1))? (r-1) : b;
 526:Core/Src/ili9341.c ****         ILI9341_DrawLine(x + b, y - a, x + pre_b, y - a, color);
 2394              		.loc 1 526 9 is_stmt 1 discriminator 4 view .LVU569
 2395 001a AFB2     		uxth	r7, r5
 2396 001c 029B     		ldr	r3, [sp, #8]
 2397 001e 9C1B     		subs	r4, r3, r6
 2398 0020 A4B2     		uxth	r4, r4
 2399 0022 1FFA88F8 		uxth	r8, r8
ARM GAS  C:\Users\ADMINI~1\AppData\Local\Temp\cc7pslQz.s 			page 61


 2400              	.LVL240:
 2401              		.loc 1 526 9 is_stmt 0 discriminator 4 view .LVU570
 2402 0026 08EB0A02 		add	r2, r8, r10
 2403 002a 07EB0A00 		add	r0, r7, r10
 2404 002e CDF800B0 		str	fp, [sp]
 2405 0032 2346     		mov	r3, r4
 2406 0034 92B2     		uxth	r2, r2
 2407 0036 2146     		mov	r1, r4
 2408 0038 80B2     		uxth	r0, r0
 2409 003a FFF7FEFF 		bl	ILI9341_DrawLine
 2410              	.LVL241:
 527:Core/Src/ili9341.c ****         ILI9341_DrawLine(x - b, y - a, x - pre_b, y - a, color);
 2411              		.loc 1 527 9 is_stmt 1 discriminator 4 view .LVU571
 2412 003e AAEB0802 		sub	r2, r10, r8
 2413 0042 AAEB0700 		sub	r0, r10, r7
 2414 0046 CDF800B0 		str	fp, [sp]
 2415 004a 2346     		mov	r3, r4
 2416 004c 92B2     		uxth	r2, r2
 2417 004e 2146     		mov	r1, r4
 2418 0050 80B2     		uxth	r0, r0
 2419 0052 FFF7FEFF 		bl	ILI9341_DrawLine
 2420              	.LVL242:
 528:Core/Src/ili9341.c ****         pre_b = b;
 2421              		.loc 1 528 9 discriminator 4 view .LVU572
 522:Core/Src/ili9341.c ****     {   
 2422              		.loc 1 522 20 discriminator 4 view .LVU573
 522:Core/Src/ili9341.c ****     {   
 2423              		.loc 1 522 21 is_stmt 0 discriminator 4 view .LVU574
 2424 0056 013E     		subs	r6, r6, #1
 2425              	.LVL243:
 2426              		.loc 1 528 15 discriminator 4 view .LVU575
 2427 0058 A846     		mov	r8, r5
 2428              	.LVL244:
 2429              	.L138:
 522:Core/Src/ili9341.c ****     {   
 2430              		.loc 1 522 11 is_stmt 1 discriminator 1 view .LVU576
 522:Core/Src/ili9341.c ****     {   
 2431              		.loc 1 522 16 is_stmt 0 discriminator 1 view .LVU577
 2432 005a C9F10003 		rsb	r3, r9, #0
 522:Core/Src/ili9341.c ****     {   
 2433              		.loc 1 522 5 discriminator 1 view .LVU578
 2434 005e B342     		cmp	r3, r6
 2435 0060 0ADC     		bgt	.L143
 524:Core/Src/ili9341.c ****         b = (b > (r-1))? (r-1) : b;
 2436              		.loc 1 524 9 is_stmt 1 view .LVU579
 524:Core/Src/ili9341.c ****         b = (b > (r-1))? (r-1) : b;
 2437              		.loc 1 524 21 is_stmt 0 view .LVU580
 2438 0062 09FB09F0 		mul	r0, r9, r9
 524:Core/Src/ili9341.c ****         b = (b > (r-1))? (r-1) : b;
 2439              		.loc 1 524 13 view .LVU581
 2440 0066 06FB1600 		mls	r0, r6, r6, r0
 2441 006a FFF7FEFF 		bl	sqrt_t
 2442              	.LVL245:
 2443 006e 0546     		mov	r5, r0
 2444              	.LVL246:
 525:Core/Src/ili9341.c ****         ILI9341_DrawLine(x + b, y - a, x + pre_b, y - a, color);
 2445              		.loc 1 525 9 is_stmt 1 view .LVU582
ARM GAS  C:\Users\ADMINI~1\AppData\Local\Temp\cc7pslQz.s 			page 62


 525:Core/Src/ili9341.c ****         ILI9341_DrawLine(x + b, y - a, x + pre_b, y - a, color);
 2446              		.loc 1 525 32 is_stmt 0 view .LVU583
 2447 0070 8145     		cmp	r9, r0
 2448 0072 D2DC     		bgt	.L139
 2449 0074 039D     		ldr	r5, [sp, #12]
 2450 0076 D0E7     		b	.L139
 2451              	.LVL247:
 2452              	.L143:
 529:Core/Src/ili9341.c ****     }
 530:Core/Src/ili9341.c **** }
 2453              		.loc 1 530 1 view .LVU584
 2454 0078 05B0     		add	sp, sp, #20
 2455              	.LCFI55:
 2456              		.cfi_def_cfa_offset 36
 2457              		@ sp needed
 2458 007a BDE8F08F 		pop	{r4, r5, r6, r7, r8, r9, r10, fp, pc}
 2459              		.loc 1 530 1 view .LVU585
 2460              		.cfi_endproc
 2461              	.LFE85:
 2463              		.section	.text.ILI9341_FillCircle,"ax",%progbits
 2464              		.align	1
 2465              		.global	ILI9341_FillCircle
 2466              		.syntax unified
 2467              		.thumb
 2468              		.thumb_func
 2470              	ILI9341_FillCircle:
 2471              	.LVL248:
 2472              	.LFB86:
 531:Core/Src/ili9341.c **** 
 532:Core/Src/ili9341.c **** void ILI9341_FillCircle(uint16_t x, uint16_t y, uint16_t r, uint16_t color)
 533:Core/Src/ili9341.c **** {
 2473              		.loc 1 533 1 is_stmt 1 view -0
 2474              		.cfi_startproc
 2475              		@ args = 0, pretend = 0, frame = 0
 2476              		@ frame_needed = 0, uses_anonymous_args = 0
 2477              		.loc 1 533 1 is_stmt 0 view .LVU587
 2478 0000 2DE9F043 		push	{r4, r5, r6, r7, r8, r9, lr}
 2479              	.LCFI56:
 2480              		.cfi_def_cfa_offset 28
 2481              		.cfi_offset 4, -28
 2482              		.cfi_offset 5, -24
 2483              		.cfi_offset 6, -20
 2484              		.cfi_offset 7, -16
 2485              		.cfi_offset 8, -12
 2486              		.cfi_offset 9, -8
 2487              		.cfi_offset 14, -4
 2488 0004 83B0     		sub	sp, sp, #12
 2489              	.LCFI57:
 2490              		.cfi_def_cfa_offset 40
 2491 0006 0646     		mov	r6, r0
 2492 0008 8846     		mov	r8, r1
 2493 000a 1546     		mov	r5, r2
 2494 000c 1F46     		mov	r7, r3
 534:Core/Src/ili9341.c ****     int a, b;
 2495              		.loc 1 534 5 is_stmt 1 view .LVU588
 535:Core/Src/ili9341.c ****     a = r-1;
 2496              		.loc 1 535 5 view .LVU589
ARM GAS  C:\Users\ADMINI~1\AppData\Local\Temp\cc7pslQz.s 			page 63


 2497              		.loc 1 535 7 is_stmt 0 view .LVU590
 2498 000e 02F1FF39 		add	r9, r2, #-1
 2499              	.LVL249:
 536:Core/Src/ili9341.c ****     b = 0;
 2500              		.loc 1 536 5 is_stmt 1 view .LVU591
 537:Core/Src/ili9341.c **** 
 538:Core/Src/ili9341.c ****     for(; a > -r; a--)
 2501              		.loc 1 538 5 view .LVU592
 535:Core/Src/ili9341.c ****     b = 0;
 2502              		.loc 1 535 7 is_stmt 0 view .LVU593
 2503 0012 4C46     		mov	r4, r9
 2504              		.loc 1 538 5 view .LVU594
 2505 0014 0CE0     		b	.L145
 2506              	.LVL250:
 2507              	.L146:
 539:Core/Src/ili9341.c ****     {   
 540:Core/Src/ili9341.c ****         b = sqrt_t(r*r - a*a);
 541:Core/Src/ili9341.c ****         b = (b > (r-1))? (r-1) : b;
 542:Core/Src/ili9341.c ****         ILI9341_DrawLine(x + b, y - a, x - b, y - a, color);
 2508              		.loc 1 542 9 is_stmt 1 discriminator 4 view .LVU595
 2509 0016 80B2     		uxth	r0, r0
 2510              	.LVL251:
 2511              		.loc 1 542 9 is_stmt 0 discriminator 4 view .LVU596
 2512 0018 A8EB0401 		sub	r1, r8, r4
 2513 001c 89B2     		uxth	r1, r1
 2514 001e 321A     		subs	r2, r6, r0
 2515 0020 3044     		add	r0, r0, r6
 2516 0022 0097     		str	r7, [sp]
 2517 0024 0B46     		mov	r3, r1
 2518 0026 92B2     		uxth	r2, r2
 2519 0028 80B2     		uxth	r0, r0
 2520 002a FFF7FEFF 		bl	ILI9341_DrawLine
 2521              	.LVL252:
 538:Core/Src/ili9341.c ****     {   
 2522              		.loc 1 538 19 is_stmt 1 discriminator 4 view .LVU597
 538:Core/Src/ili9341.c ****     {   
 2523              		.loc 1 538 20 is_stmt 0 discriminator 4 view .LVU598
 2524 002e 013C     		subs	r4, r4, #1
 2525              	.LVL253:
 2526              	.L145:
 538:Core/Src/ili9341.c ****     {   
 2527              		.loc 1 538 11 is_stmt 1 discriminator 1 view .LVU599
 538:Core/Src/ili9341.c ****     {   
 2528              		.loc 1 538 15 is_stmt 0 discriminator 1 view .LVU600
 2529 0030 6B42     		rsbs	r3, r5, #0
 538:Core/Src/ili9341.c ****     {   
 2530              		.loc 1 538 5 discriminator 1 view .LVU601
 2531 0032 A342     		cmp	r3, r4
 2532 0034 09DA     		bge	.L150
 540:Core/Src/ili9341.c ****         b = (b > (r-1))? (r-1) : b;
 2533              		.loc 1 540 9 is_stmt 1 view .LVU602
 540:Core/Src/ili9341.c ****         b = (b > (r-1))? (r-1) : b;
 2534              		.loc 1 540 21 is_stmt 0 view .LVU603
 2535 0036 05FB05F0 		mul	r0, r5, r5
 540:Core/Src/ili9341.c ****         b = (b > (r-1))? (r-1) : b;
 2536              		.loc 1 540 13 view .LVU604
 2537 003a 04FB1400 		mls	r0, r4, r4, r0
ARM GAS  C:\Users\ADMINI~1\AppData\Local\Temp\cc7pslQz.s 			page 64


 2538 003e FFF7FEFF 		bl	sqrt_t
 2539              	.LVL254:
 541:Core/Src/ili9341.c ****         ILI9341_DrawLine(x + b, y - a, x - b, y - a, color);
 2540              		.loc 1 541 9 is_stmt 1 view .LVU605
 541:Core/Src/ili9341.c ****         ILI9341_DrawLine(x + b, y - a, x - b, y - a, color);
 2541              		.loc 1 541 32 is_stmt 0 view .LVU606
 2542 0042 8542     		cmp	r5, r0
 2543 0044 E7DC     		bgt	.L146
 2544 0046 4846     		mov	r0, r9
 2545              	.LVL255:
 541:Core/Src/ili9341.c ****         ILI9341_DrawLine(x + b, y - a, x - b, y - a, color);
 2546              		.loc 1 541 32 view .LVU607
 2547 0048 E5E7     		b	.L146
 2548              	.L150:
 543:Core/Src/ili9341.c ****     }
 544:Core/Src/ili9341.c **** }
 2549              		.loc 1 544 1 view .LVU608
 2550 004a 03B0     		add	sp, sp, #12
 2551              	.LCFI58:
 2552              		.cfi_def_cfa_offset 28
 2553              		@ sp needed
 2554 004c BDE8F083 		pop	{r4, r5, r6, r7, r8, r9, pc}
 2555              		.loc 1 544 1 view .LVU609
 2556              		.cfi_endproc
 2557              	.LFE86:
 2559              		.section	.rodata.Main_page.str1.4,"aMS",%progbits,1
 2560              		.align	2
 2561              	.LC6:
 2562 0000 53696D53 		.ascii	"SimStatus:  \000"
 2562      74617475 
 2562      733A2020 
 2562      00
 2563 000d 000000   		.align	2
 2564              	.LC7:
 2565 0010 42617474 		.ascii	"Battery: 45%\000"
 2565      6572793A 
 2565      20343525 
 2565      00
 2566 001d 000000   		.align	2
 2567              	.LC8:
 2568 0020 4E686970 		.ascii	"Nhip Tim\000"
 2568      2054696D 
 2568      00
 2569 0029 000000   		.align	2
 2570              	.LC9:
 2571 002c 31303020 		.ascii	"100 (BPM)\000"
 2571      2842504D 
 2571      2900
 2572 0036 0000     		.align	2
 2573              	.LC10:
 2574 0038 536F2062 		.ascii	"So buoc:\000"
 2574      756F633A 
 2574      00
 2575 0041 000000   		.align	2
 2576              	.LC11:
 2577 0044 31303030 		.ascii	"10000(Buoc)\000"
 2577      30284275 
ARM GAS  C:\Users\ADMINI~1\AppData\Local\Temp\cc7pslQz.s 			page 65


 2577      6F632900 
 2578              		.align	2
 2579              	.LC12:
 2580 0050 52756E20 		.ascii	"Run Time\000"
 2580      54696D65 
 2580      00
 2581 0059 000000   		.align	2
 2582              	.LC13:
 2583 005c 31323020 		.ascii	"120 minutes\000"
 2583      6D696E75 
 2583      74657300 
 2584              		.align	2
 2585              	.LC14:
 2586 0068 436F6F72 		.ascii	"Coordinates\000"
 2586      64696E61 
 2586      74657300 
 2587              		.align	2
 2588              	.LC15:
 2589 0074 4B696E68 		.ascii	"Kinh do:    \000"
 2589      20646F3A 
 2589      20202020 
 2589      00
 2590 0081 000000   		.align	2
 2591              	.LC16:
 2592 0084 56692064 		.ascii	"Vi do:    \000"
 2592      6F3A2020 
 2592      202000
 2593 008f 00       		.align	2
 2594              	.LC17:
 2595 0090 53544152 		.ascii	"START\000"
 2595      5400
 2596 0096 0000     		.align	2
 2597              	.LC18:
 2598 0098 50415553 		.ascii	"PAUSE\000"
 2598      4500
 2599 009e 0000     		.align	2
 2600              	.LC19:
 2601 00a0 53544F50 		.ascii	"STOP\000"
 2601      00
 2602              		.section	.text.Main_page,"ax",%progbits
 2603              		.align	1
 2604              		.global	Main_page
 2605              		.syntax unified
 2606              		.thumb
 2607              		.thumb_func
 2609              	Main_page:
 2610              	.LFB87:
 545:Core/Src/ili9341.c **** 
 546:Core/Src/ili9341.c **** void Main_page(void)
 547:Core/Src/ili9341.c **** {
 2611              		.loc 1 547 1 is_stmt 1 view -0
 2612              		.cfi_startproc
 2613              		@ args = 0, pretend = 0, frame = 0
 2614              		@ frame_needed = 0, uses_anonymous_args = 0
 2615 0000 F0B5     		push	{r4, r5, r6, r7, lr}
 2616              	.LCFI59:
 2617              		.cfi_def_cfa_offset 20
ARM GAS  C:\Users\ADMINI~1\AppData\Local\Temp\cc7pslQz.s 			page 66


 2618              		.cfi_offset 4, -20
 2619              		.cfi_offset 5, -16
 2620              		.cfi_offset 6, -12
 2621              		.cfi_offset 7, -8
 2622              		.cfi_offset 14, -4
 2623 0002 85B0     		sub	sp, sp, #20
 2624              	.LCFI60:
 2625              		.cfi_def_cfa_offset 40
 548:Core/Src/ili9341.c ****     ILI9341_Init();
 2626              		.loc 1 548 5 view .LVU611
 2627 0004 FFF7FEFF 		bl	ILI9341_Init
 2628              	.LVL256:
 549:Core/Src/ili9341.c **** 
 550:Core/Src/ili9341.c ****     ILI9341_FillScreen(ILI9341_ORANGE);
 2629              		.loc 1 550 5 view .LVU612
 2630 0008 4FF62050 		movw	r0, #64800
 2631 000c FFF7FEFF 		bl	ILI9341_FillScreen
 2632              	.LVL257:
 551:Core/Src/ili9341.c **** 
 552:Core/Src/ili9341.c ****     ILI9341_FillRectangle(20, 15, 280, 35, ILI9341_WHITE);
 2633              		.loc 1 552 5 view .LVU613
 2634 0010 4FF6FF75 		movw	r5, #65535
 2635 0014 0095     		str	r5, [sp]
 2636 0016 2323     		movs	r3, #35
 2637 0018 4FF48C72 		mov	r2, #280
 2638 001c 0F21     		movs	r1, #15
 2639 001e 1420     		movs	r0, #20
 2640 0020 FFF7FEFF 		bl	ILI9341_FillRectangle
 2641              	.LVL258:
 553:Core/Src/ili9341.c **** 
 554:Core/Src/ili9341.c ****     HAL_Delay(50);
 2642              		.loc 1 554 5 view .LVU614
 2643 0024 3220     		movs	r0, #50
 2644 0026 FFF7FEFF 		bl	HAL_Delay
 2645              	.LVL259:
 555:Core/Src/ili9341.c **** 
 556:Core/Src/ili9341.c ****     ILI9341_DrawLine(160, 15, 160, 50, ILI9341_BLACK);
 2646              		.loc 1 556 5 view .LVU615
 2647 002a 0026     		movs	r6, #0
 2648 002c 0096     		str	r6, [sp]
 2649 002e 3223     		movs	r3, #50
 2650 0030 A022     		movs	r2, #160
 2651 0032 0F21     		movs	r1, #15
 2652 0034 1046     		mov	r0, r2
 2653 0036 FFF7FEFF 		bl	ILI9341_DrawLine
 2654              	.LVL260:
 557:Core/Src/ili9341.c **** 
 558:Core/Src/ili9341.c ****     ILI9341_WriteString(25, 25, "SimStatus:  ", Font_11x18, ILI9341_BLACK, ILI9341_WHITE);
 2655              		.loc 1 558 5 view .LVU616
 2656 003a 784C     		ldr	r4, .L153
 2657 003c 0295     		str	r5, [sp, #8]
 2658 003e 0196     		str	r6, [sp, #4]
 2659 0040 6368     		ldr	r3, [r4, #4]
 2660 0042 0093     		str	r3, [sp]
 2661 0044 2368     		ldr	r3, [r4]
 2662 0046 764A     		ldr	r2, .L153+4
 2663 0048 1921     		movs	r1, #25
ARM GAS  C:\Users\ADMINI~1\AppData\Local\Temp\cc7pslQz.s 			page 67


 2664 004a 0846     		mov	r0, r1
 2665 004c FFF7FEFF 		bl	ILI9341_WriteString
 2666              	.LVL261:
 559:Core/Src/ili9341.c ****     ILI9341_WriteString(165, 25, "Battery: 45%", Font_11x18,ILI9341_BLACK, ILI9341_WHITE);
 2667              		.loc 1 559 5 view .LVU617
 2668 0050 0295     		str	r5, [sp, #8]
 2669 0052 0196     		str	r6, [sp, #4]
 2670 0054 6368     		ldr	r3, [r4, #4]
 2671 0056 0093     		str	r3, [sp]
 2672 0058 2368     		ldr	r3, [r4]
 2673 005a 724A     		ldr	r2, .L153+8
 2674 005c 1921     		movs	r1, #25
 2675 005e A520     		movs	r0, #165
 2676 0060 FFF7FEFF 		bl	ILI9341_WriteString
 2677              	.LVL262:
 560:Core/Src/ili9341.c **** 
 561:Core/Src/ili9341.c ****     HAL_Delay(50);
 2678              		.loc 1 561 5 view .LVU618
 2679 0064 3220     		movs	r0, #50
 2680 0066 FFF7FEFF 		bl	HAL_Delay
 2681              	.LVL263:
 562:Core/Src/ili9341.c **** 
 563:Core/Src/ili9341.c ****     ILI9341_FillRectangle(38, 60, 244, 110, ILI9341_WHITE);
 2682              		.loc 1 563 5 view .LVU619
 2683 006a 0095     		str	r5, [sp]
 2684 006c 6E23     		movs	r3, #110
 2685 006e F422     		movs	r2, #244
 2686 0070 3C21     		movs	r1, #60
 2687 0072 2620     		movs	r0, #38
 2688 0074 FFF7FEFF 		bl	ILI9341_FillRectangle
 2689              	.LVL264:
 564:Core/Src/ili9341.c ****    ILI9341_DrawLine(160, 60, 160, 170, ILI9341_BLACK);
 2690              		.loc 1 564 4 view .LVU620
 2691 0078 0096     		str	r6, [sp]
 2692 007a AA23     		movs	r3, #170
 2693 007c A022     		movs	r2, #160
 2694 007e 3C21     		movs	r1, #60
 2695 0080 1046     		mov	r0, r2
 2696 0082 FFF7FEFF 		bl	ILI9341_DrawLine
 2697              	.LVL265:
 565:Core/Src/ili9341.c ****    ILI9341_DrawLine(38, 115, 282, 115, ILI9341_BLACK);
 2698              		.loc 1 565 4 view .LVU621
 2699 0086 0096     		str	r6, [sp]
 2700 0088 7323     		movs	r3, #115
 2701 008a 4FF48D72 		mov	r2, #282
 2702 008e 1946     		mov	r1, r3
 2703 0090 2620     		movs	r0, #38
 2704 0092 FFF7FEFF 		bl	ILI9341_DrawLine
 2705              	.LVL266:
 566:Core/Src/ili9341.c **** 
 567:Core/Src/ili9341.c ****    ILI9341_WriteString(50, 65, "Nhip Tim", Font_11x18, ILI9341_BLACK, ILI9341_WHITE);
 2706              		.loc 1 567 4 view .LVU622
 2707 0096 0295     		str	r5, [sp, #8]
 2708 0098 0196     		str	r6, [sp, #4]
 2709 009a 6368     		ldr	r3, [r4, #4]
 2710 009c 0093     		str	r3, [sp]
 2711 009e 2368     		ldr	r3, [r4]
ARM GAS  C:\Users\ADMINI~1\AppData\Local\Temp\cc7pslQz.s 			page 68


 2712 00a0 614A     		ldr	r2, .L153+12
 2713 00a2 4121     		movs	r1, #65
 2714 00a4 3220     		movs	r0, #50
 2715 00a6 FFF7FEFF 		bl	ILI9341_WriteString
 2716              	.LVL267:
 568:Core/Src/ili9341.c ****     ILI9341_WriteString(51, 90, "100 (BPM)", Font_11x18, ILI9341_BLACK, ILI9341_WHITE);
 2717              		.loc 1 568 5 view .LVU623
 2718 00aa 0295     		str	r5, [sp, #8]
 2719 00ac 0196     		str	r6, [sp, #4]
 2720 00ae 6368     		ldr	r3, [r4, #4]
 2721 00b0 0093     		str	r3, [sp]
 2722 00b2 2368     		ldr	r3, [r4]
 2723 00b4 5D4A     		ldr	r2, .L153+16
 2724 00b6 5A21     		movs	r1, #90
 2725 00b8 3320     		movs	r0, #51
 2726 00ba FFF7FEFF 		bl	ILI9341_WriteString
 2727              	.LVL268:
 569:Core/Src/ili9341.c **** 
 570:Core/Src/ili9341.c ****     ILI9341_WriteString(177, 65, "So buoc:", Font_11x18, ILI9341_BLACK, ILI9341_WHITE);
 2728              		.loc 1 570 5 view .LVU624
 2729 00be 0295     		str	r5, [sp, #8]
 2730 00c0 0196     		str	r6, [sp, #4]
 2731 00c2 6368     		ldr	r3, [r4, #4]
 2732 00c4 0093     		str	r3, [sp]
 2733 00c6 2368     		ldr	r3, [r4]
 2734 00c8 594A     		ldr	r2, .L153+20
 2735 00ca 4121     		movs	r1, #65
 2736 00cc B120     		movs	r0, #177
 2737 00ce FFF7FEFF 		bl	ILI9341_WriteString
 2738              	.LVL269:
 571:Core/Src/ili9341.c ****     ILI9341_WriteString(161, 90, "10000(Buoc)", Font_11x18, ILI9341_BLACK, ILI9341_WHITE);
 2739              		.loc 1 571 5 view .LVU625
 2740 00d2 0295     		str	r5, [sp, #8]
 2741 00d4 0196     		str	r6, [sp, #4]
 2742 00d6 6368     		ldr	r3, [r4, #4]
 2743 00d8 0093     		str	r3, [sp]
 2744 00da 2368     		ldr	r3, [r4]
 2745 00dc 554A     		ldr	r2, .L153+24
 2746 00de 5A21     		movs	r1, #90
 2747 00e0 A120     		movs	r0, #161
 2748 00e2 FFF7FEFF 		bl	ILI9341_WriteString
 2749              	.LVL270:
 572:Core/Src/ili9341.c **** 
 573:Core/Src/ili9341.c ****     ILI9341_WriteString(50, 125, "Run Time", Font_11x18, ILI9341_BLACK, ILI9341_WHITE);
 2750              		.loc 1 573 5 view .LVU626
 2751 00e6 0295     		str	r5, [sp, #8]
 2752 00e8 0196     		str	r6, [sp, #4]
 2753 00ea 6368     		ldr	r3, [r4, #4]
 2754 00ec 0093     		str	r3, [sp]
 2755 00ee 2368     		ldr	r3, [r4]
 2756 00f0 514A     		ldr	r2, .L153+28
 2757 00f2 7D21     		movs	r1, #125
 2758 00f4 3220     		movs	r0, #50
 2759 00f6 FFF7FEFF 		bl	ILI9341_WriteString
 2760              	.LVL271:
 574:Core/Src/ili9341.c ****     ILI9341_WriteString(39, 150, "120 minutes", Font_11x18, ILI9341_BLACK, ILI9341_WHITE);
 2761              		.loc 1 574 5 view .LVU627
ARM GAS  C:\Users\ADMINI~1\AppData\Local\Temp\cc7pslQz.s 			page 69


 2762 00fa 0295     		str	r5, [sp, #8]
 2763 00fc 0196     		str	r6, [sp, #4]
 2764 00fe 6368     		ldr	r3, [r4, #4]
 2765 0100 0093     		str	r3, [sp]
 2766 0102 2368     		ldr	r3, [r4]
 2767 0104 4D4A     		ldr	r2, .L153+32
 2768 0106 9621     		movs	r1, #150
 2769 0108 2720     		movs	r0, #39
 2770 010a FFF7FEFF 		bl	ILI9341_WriteString
 2771              	.LVL272:
 575:Core/Src/ili9341.c **** 
 576:Core/Src/ili9341.c ****     ILI9341_WriteString(161, 125, "Coordinates", Font_11x18, ILI9341_BLACK, ILI9341_WHITE);
 2772              		.loc 1 576 5 view .LVU628
 2773 010e 0295     		str	r5, [sp, #8]
 2774 0110 0196     		str	r6, [sp, #4]
 2775 0112 6368     		ldr	r3, [r4, #4]
 2776 0114 0093     		str	r3, [sp]
 2777 0116 2368     		ldr	r3, [r4]
 2778 0118 494A     		ldr	r2, .L153+36
 2779 011a 7D21     		movs	r1, #125
 2780 011c A120     		movs	r0, #161
 2781 011e FFF7FEFF 		bl	ILI9341_WriteString
 2782              	.LVL273:
 577:Core/Src/ili9341.c ****     ILI9341_WriteString(165, 147, "Kinh do:    ", Font_7x10, ILI9341_BLACK, ILI9341_WHITE);
 2783              		.loc 1 577 5 view .LVU629
 2784 0122 484F     		ldr	r7, .L153+40
 2785 0124 0295     		str	r5, [sp, #8]
 2786 0126 0196     		str	r6, [sp, #4]
 2787 0128 7B68     		ldr	r3, [r7, #4]
 2788 012a 0093     		str	r3, [sp]
 2789 012c 3B68     		ldr	r3, [r7]
 2790 012e 464A     		ldr	r2, .L153+44
 2791 0130 9321     		movs	r1, #147
 2792 0132 A520     		movs	r0, #165
 2793 0134 FFF7FEFF 		bl	ILI9341_WriteString
 2794              	.LVL274:
 578:Core/Src/ili9341.c ****     ILI9341_WriteString(165, 160, "Vi do:    ", Font_7x10, ILI9341_BLACK, ILI9341_WHITE);
 2795              		.loc 1 578 5 view .LVU630
 2796 0138 0295     		str	r5, [sp, #8]
 2797 013a 0196     		str	r6, [sp, #4]
 2798 013c 7B68     		ldr	r3, [r7, #4]
 2799 013e 0093     		str	r3, [sp]
 2800 0140 3B68     		ldr	r3, [r7]
 2801 0142 424A     		ldr	r2, .L153+48
 2802 0144 A021     		movs	r1, #160
 2803 0146 A520     		movs	r0, #165
 2804 0148 FFF7FEFF 		bl	ILI9341_WriteString
 2805              	.LVL275:
 579:Core/Src/ili9341.c **** 
 580:Core/Src/ili9341.c ****     ILI9341_FillRectangle(65, 185, 190, 40, ILI9341_WHITE);
 2806              		.loc 1 580 5 view .LVU631
 2807 014c 0095     		str	r5, [sp]
 2808 014e 2823     		movs	r3, #40
 2809 0150 BE22     		movs	r2, #190
 2810 0152 B921     		movs	r1, #185
 2811 0154 4120     		movs	r0, #65
 2812 0156 FFF7FEFF 		bl	ILI9341_FillRectangle
ARM GAS  C:\Users\ADMINI~1\AppData\Local\Temp\cc7pslQz.s 			page 70


 2813              	.LVL276:
 581:Core/Src/ili9341.c ****     ILI9341_WriteString(66, 197, "START", Font_11x18, ILI9341_BLACK, ILI9341_WHITE);
 2814              		.loc 1 581 5 view .LVU632
 2815 015a 0295     		str	r5, [sp, #8]
 2816 015c 0196     		str	r6, [sp, #4]
 2817 015e 6368     		ldr	r3, [r4, #4]
 2818 0160 0093     		str	r3, [sp]
 2819 0162 2368     		ldr	r3, [r4]
 2820 0164 3A4A     		ldr	r2, .L153+52
 2821 0166 C521     		movs	r1, #197
 2822 0168 4220     		movs	r0, #66
 2823 016a FFF7FEFF 		bl	ILI9341_WriteString
 2824              	.LVL277:
 582:Core/Src/ili9341.c ****     ILI9341_WriteString(135, 197, "PAUSE", Font_11x18, ILI9341_BLACK, ILI9341_WHITE);
 2825              		.loc 1 582 5 view .LVU633
 2826 016e 0295     		str	r5, [sp, #8]
 2827 0170 0196     		str	r6, [sp, #4]
 2828 0172 6368     		ldr	r3, [r4, #4]
 2829 0174 0093     		str	r3, [sp]
 2830 0176 2368     		ldr	r3, [r4]
 2831 0178 364A     		ldr	r2, .L153+56
 2832 017a C521     		movs	r1, #197
 2833 017c 8720     		movs	r0, #135
 2834 017e FFF7FEFF 		bl	ILI9341_WriteString
 2835              	.LVL278:
 583:Core/Src/ili9341.c ****     ILI9341_WriteString(205, 197, "STOP", Font_11x18, ILI9341_BLACK, ILI9341_WHITE);
 2836              		.loc 1 583 5 view .LVU634
 2837 0182 0295     		str	r5, [sp, #8]
 2838 0184 0196     		str	r6, [sp, #4]
 2839 0186 6368     		ldr	r3, [r4, #4]
 2840 0188 0093     		str	r3, [sp]
 2841 018a 2368     		ldr	r3, [r4]
 2842 018c 324A     		ldr	r2, .L153+60
 2843 018e C521     		movs	r1, #197
 2844 0190 CD20     		movs	r0, #205
 2845 0192 FFF7FEFF 		bl	ILI9341_WriteString
 2846              	.LVL279:
 584:Core/Src/ili9341.c ****     ILI9341_DrawLine(125, 185, 125, 225, ILI9341_BLACK);
 2847              		.loc 1 584 5 view .LVU635
 2848 0196 0096     		str	r6, [sp]
 2849 0198 E123     		movs	r3, #225
 2850 019a 7D22     		movs	r2, #125
 2851 019c B921     		movs	r1, #185
 2852 019e 1046     		mov	r0, r2
 2853 01a0 FFF7FEFF 		bl	ILI9341_DrawLine
 2854              	.LVL280:
 585:Core/Src/ili9341.c ****     ILI9341_DrawLine(197, 185, 197, 225, ILI9341_BLACK);
 2855              		.loc 1 585 5 view .LVU636
 2856 01a4 0096     		str	r6, [sp]
 2857 01a6 E123     		movs	r3, #225
 2858 01a8 C522     		movs	r2, #197
 2859 01aa B921     		movs	r1, #185
 2860 01ac 1046     		mov	r0, r2
 2861 01ae FFF7FEFF 		bl	ILI9341_DrawLine
 2862              	.LVL281:
 586:Core/Src/ili9341.c **** 
 587:Core/Src/ili9341.c ****     ILI9341_FillCircle(30, 205, 28, ILI9341_LIGHTBLUE);
ARM GAS  C:\Users\ADMINI~1\AppData\Local\Temp\cc7pslQz.s 			page 71


 2863              		.loc 1 587 5 view .LVU637
 2864 01b2 47F67C53 		movw	r3, #32124
 2865 01b6 1C22     		movs	r2, #28
 2866 01b8 CD21     		movs	r1, #205
 2867 01ba 1E20     		movs	r0, #30
 2868 01bc FFF7FEFF 		bl	ILI9341_FillCircle
 2869              	.LVL282:
 588:Core/Src/ili9341.c **** 
 589:Core/Src/ili9341.c ****     ILI9341_FillCircle(290, 205, 28, ILI9341_LIGHTBLUE);
 2870              		.loc 1 589 5 view .LVU638
 2871 01c0 47F67C53 		movw	r3, #32124
 2872 01c4 1C22     		movs	r2, #28
 2873 01c6 CD21     		movs	r1, #205
 2874 01c8 4FF49170 		mov	r0, #290
 2875 01cc FFF7FEFF 		bl	ILI9341_FillCircle
 2876              	.LVL283:
 590:Core/Src/ili9341.c ****     ILI9341_FillRectangle(275, 195, 25, 20, ILI9341_WHITE);
 2877              		.loc 1 590 5 view .LVU639
 2878 01d0 0095     		str	r5, [sp]
 2879 01d2 1423     		movs	r3, #20
 2880 01d4 1922     		movs	r2, #25
 2881 01d6 C321     		movs	r1, #195
 2882 01d8 40F21310 		movw	r0, #275
 2883 01dc FFF7FEFF 		bl	ILI9341_FillRectangle
 2884              	.LVL284:
 591:Core/Src/ili9341.c ****     ILI9341_FillTriangle(300, 190, 310, 205, 300, 220, ILI9341_WHITE);
 2885              		.loc 1 591 5 view .LVU640
 2886 01e0 0295     		str	r5, [sp, #8]
 2887 01e2 DC24     		movs	r4, #220
 2888 01e4 0194     		str	r4, [sp, #4]
 2889 01e6 4FF49670 		mov	r0, #300
 2890 01ea 0090     		str	r0, [sp]
 2891 01ec CD23     		movs	r3, #205
 2892 01ee 4FF49B72 		mov	r2, #310
 2893 01f2 BE21     		movs	r1, #190
 2894 01f4 FFF7FEFF 		bl	ILI9341_FillTriangle
 2895              	.LVL285:
 592:Core/Src/ili9341.c ****     ILI9341_FillRectangle(20, 195, 25, 20, ILI9341_WHITE);
 2896              		.loc 1 592 5 view .LVU641
 2897 01f8 0095     		str	r5, [sp]
 2898 01fa 1423     		movs	r3, #20
 2899 01fc 1922     		movs	r2, #25
 2900 01fe C321     		movs	r1, #195
 2901 0200 1846     		mov	r0, r3
 2902 0202 FFF7FEFF 		bl	ILI9341_FillRectangle
 2903              	.LVL286:
 593:Core/Src/ili9341.c ****     ILI9341_FillTriangle(20, 190, 10, 205, 20, 220, ILI9341_WHITE);
 2904              		.loc 1 593 5 view .LVU642
 2905 0206 0295     		str	r5, [sp, #8]
 2906 0208 0194     		str	r4, [sp, #4]
 2907 020a 1420     		movs	r0, #20
 2908 020c 0090     		str	r0, [sp]
 2909 020e CD23     		movs	r3, #205
 2910 0210 0A22     		movs	r2, #10
 2911 0212 BE21     		movs	r1, #190
 2912 0214 FFF7FEFF 		bl	ILI9341_FillTriangle
 2913              	.LVL287:
ARM GAS  C:\Users\ADMINI~1\AppData\Local\Temp\cc7pslQz.s 			page 72


 594:Core/Src/ili9341.c **** 
 595:Core/Src/ili9341.c **** }
 2914              		.loc 1 595 1 is_stmt 0 view .LVU643
 2915 0218 05B0     		add	sp, sp, #20
 2916              	.LCFI61:
 2917              		.cfi_def_cfa_offset 20
 2918              		@ sp needed
 2919 021a F0BD     		pop	{r4, r5, r6, r7, pc}
 2920              	.L154:
 2921              		.align	2
 2922              	.L153:
 2923 021c 00000000 		.word	Font_11x18
 2924 0220 00000000 		.word	.LC6
 2925 0224 10000000 		.word	.LC7
 2926 0228 20000000 		.word	.LC8
 2927 022c 2C000000 		.word	.LC9
 2928 0230 38000000 		.word	.LC10
 2929 0234 44000000 		.word	.LC11
 2930 0238 50000000 		.word	.LC12
 2931 023c 5C000000 		.word	.LC13
 2932 0240 68000000 		.word	.LC14
 2933 0244 00000000 		.word	Font_7x10
 2934 0248 74000000 		.word	.LC15
 2935 024c 84000000 		.word	.LC16
 2936 0250 90000000 		.word	.LC17
 2937 0254 98000000 		.word	.LC18
 2938 0258 A0000000 		.word	.LC19
 2939              		.cfi_endproc
 2940              	.LFE87:
 2942              		.section	.rodata.Mp3_page.str1.4,"aMS",%progbits,1
 2943              		.align	2
 2944              	.LC20:
 2945 0000 54656E20 		.ascii	"Ten bai hat\000"
 2945      62616920 
 2945      68617400 
 2946              		.align	2
 2947              	.LC21:
 2948 000c 416D2074 		.ascii	"Am tham ben em-SonTungMTP\000"
 2948      68616D20 
 2948      62656E20 
 2948      656D2D53 
 2948      6F6E5475 
 2949 0026 0000     		.align	2
 2950              	.LC22:
 2951 0028 54484F49 		.ascii	"THOI LUONG CHOI\000"
 2951      204C554F 
 2951      4E472043 
 2951      484F4900 
 2952              		.align	2
 2953              	.LC23:
 2954 0038 414D204C 		.ascii	"AM LUONG\000"
 2954      554F4E47 
 2954      00
 2955 0041 000000   		.align	2
 2956              	.LC24:
 2957 0044 2D00     		.ascii	"-\000"
 2958 0046 0000     		.align	2
ARM GAS  C:\Users\ADMINI~1\AppData\Local\Temp\cc7pslQz.s 			page 73


 2959              	.LC25:
 2960 0048 2B00     		.ascii	"+\000"
 2961              		.section	.text.Mp3_page,"ax",%progbits
 2962              		.align	1
 2963              		.global	Mp3_page
 2964              		.syntax unified
 2965              		.thumb
 2966              		.thumb_func
 2968              	Mp3_page:
 2969              	.LFB88:
 596:Core/Src/ili9341.c **** 
 597:Core/Src/ili9341.c **** void Mp3_page(void)
 598:Core/Src/ili9341.c **** {
 2970              		.loc 1 598 1 is_stmt 1 view -0
 2971              		.cfi_startproc
 2972              		@ args = 0, pretend = 0, frame = 0
 2973              		@ frame_needed = 0, uses_anonymous_args = 0
 2974 0000 2DE9F043 		push	{r4, r5, r6, r7, r8, r9, lr}
 2975              	.LCFI62:
 2976              		.cfi_def_cfa_offset 28
 2977              		.cfi_offset 4, -28
 2978              		.cfi_offset 5, -24
 2979              		.cfi_offset 6, -20
 2980              		.cfi_offset 7, -16
 2981              		.cfi_offset 8, -12
 2982              		.cfi_offset 9, -8
 2983              		.cfi_offset 14, -4
 2984 0004 85B0     		sub	sp, sp, #20
 2985              	.LCFI63:
 2986              		.cfi_def_cfa_offset 48
 599:Core/Src/ili9341.c ****     ILI9341_Init();
 2987              		.loc 1 599 5 view .LVU645
 2988 0006 FFF7FEFF 		bl	ILI9341_Init
 2989              	.LVL288:
 600:Core/Src/ili9341.c **** 
 601:Core/Src/ili9341.c ****     ILI9341_FillScreen(ILI9341_ORANGE);
 2990              		.loc 1 601 5 view .LVU646
 2991 000a 4FF62050 		movw	r0, #64800
 2992 000e FFF7FEFF 		bl	ILI9341_FillScreen
 2993              	.LVL289:
 602:Core/Src/ili9341.c **** 
 603:Core/Src/ili9341.c ****     ILI9341_FillRectangle(20, 15, 280, 35, ILI9341_WHITE);
 2994              		.loc 1 603 5 view .LVU647
 2995 0012 4FF6FF74 		movw	r4, #65535
 2996 0016 0094     		str	r4, [sp]
 2997 0018 2323     		movs	r3, #35
 2998 001a 4FF48C72 		mov	r2, #280
 2999 001e 0F21     		movs	r1, #15
 3000 0020 1420     		movs	r0, #20
 3001 0022 FFF7FEFF 		bl	ILI9341_FillRectangle
 3002              	.LVL290:
 604:Core/Src/ili9341.c **** 
 605:Core/Src/ili9341.c ****     HAL_Delay(50);
 3003              		.loc 1 605 5 view .LVU648
 3004 0026 3220     		movs	r0, #50
 3005 0028 FFF7FEFF 		bl	HAL_Delay
 3006              	.LVL291:
ARM GAS  C:\Users\ADMINI~1\AppData\Local\Temp\cc7pslQz.s 			page 74


 606:Core/Src/ili9341.c **** 
 607:Core/Src/ili9341.c ****     ILI9341_DrawLine(160, 15, 160, 50, ILI9341_BLACK);
 3007              		.loc 1 607 5 view .LVU649
 3008 002c 0026     		movs	r6, #0
 3009 002e 0096     		str	r6, [sp]
 3010 0030 3223     		movs	r3, #50
 3011 0032 A022     		movs	r2, #160
 3012 0034 0F21     		movs	r1, #15
 3013 0036 1046     		mov	r0, r2
 3014 0038 FFF7FEFF 		bl	ILI9341_DrawLine
 3015              	.LVL292:
 608:Core/Src/ili9341.c **** 
 609:Core/Src/ili9341.c ****     ILI9341_WriteString(25, 25, "SimStatus:  ", Font_11x18, ILI9341_BLACK, ILI9341_WHITE);
 3016              		.loc 1 609 5 view .LVU650
 3017 003c 7C4D     		ldr	r5, .L157
 3018 003e 0294     		str	r4, [sp, #8]
 3019 0040 0196     		str	r6, [sp, #4]
 3020 0042 6B68     		ldr	r3, [r5, #4]
 3021 0044 0093     		str	r3, [sp]
 3022 0046 2B68     		ldr	r3, [r5]
 3023 0048 7A4A     		ldr	r2, .L157+4
 3024 004a 1921     		movs	r1, #25
 3025 004c 0846     		mov	r0, r1
 3026 004e FFF7FEFF 		bl	ILI9341_WriteString
 3027              	.LVL293:
 610:Core/Src/ili9341.c ****     ILI9341_WriteString(165, 25, "Battery: 45%", Font_11x18,ILI9341_BLACK, ILI9341_WHITE);
 3028              		.loc 1 610 5 view .LVU651
 3029 0052 0294     		str	r4, [sp, #8]
 3030 0054 0196     		str	r6, [sp, #4]
 3031 0056 6B68     		ldr	r3, [r5, #4]
 3032 0058 0093     		str	r3, [sp]
 3033 005a 2B68     		ldr	r3, [r5]
 3034 005c 764A     		ldr	r2, .L157+8
 3035 005e 1921     		movs	r1, #25
 3036 0060 A520     		movs	r0, #165
 3037 0062 FFF7FEFF 		bl	ILI9341_WriteString
 3038              	.LVL294:
 611:Core/Src/ili9341.c **** 
 612:Core/Src/ili9341.c ****     HAL_Delay(50);
 3039              		.loc 1 612 5 view .LVU652
 3040 0066 3220     		movs	r0, #50
 3041 0068 FFF7FEFF 		bl	HAL_Delay
 3042              	.LVL295:
 613:Core/Src/ili9341.c **** 
 614:Core/Src/ili9341.c ****     ILI9341_FillRectangle(20, 55, 280, 95, ILI9341_WHITE);
 3043              		.loc 1 614 5 view .LVU653
 3044 006c 0094     		str	r4, [sp]
 3045 006e 5F23     		movs	r3, #95
 3046 0070 4FF48C72 		mov	r2, #280
 3047 0074 3721     		movs	r1, #55
 3048 0076 1420     		movs	r0, #20
 3049 0078 FFF7FEFF 		bl	ILI9341_FillRectangle
 3050              	.LVL296:
 615:Core/Src/ili9341.c ****     ILI9341_DrawLine(20, 120, 300, 120, ILI9341_BLACK);
 3051              		.loc 1 615 5 view .LVU654
 3052 007c 0096     		str	r6, [sp]
 3053 007e 7823     		movs	r3, #120
ARM GAS  C:\Users\ADMINI~1\AppData\Local\Temp\cc7pslQz.s 			page 75


 3054 0080 4FF49672 		mov	r2, #300
 3055 0084 1946     		mov	r1, r3
 3056 0086 1420     		movs	r0, #20
 3057 0088 FFF7FEFF 		bl	ILI9341_DrawLine
 3058              	.LVL297:
 616:Core/Src/ili9341.c ****     ILI9341_DrawLine(160, 120, 160, 150, ILI9341_BLACK);
 3059              		.loc 1 616 5 view .LVU655
 3060 008c 0096     		str	r6, [sp]
 3061 008e 9623     		movs	r3, #150
 3062 0090 A022     		movs	r2, #160
 3063 0092 7821     		movs	r1, #120
 3064 0094 1046     		mov	r0, r2
 3065 0096 FFF7FEFF 		bl	ILI9341_DrawLine
 3066              	.LVL298:
 617:Core/Src/ili9341.c **** 
 618:Core/Src/ili9341.c ****     ILI9341_WriteString(110, 60, "Ten bai hat", Font_11x18, ILI9341_BLACK, ILI9341_WHITE);
 3067              		.loc 1 618 5 view .LVU656
 3068 009a 0294     		str	r4, [sp, #8]
 3069 009c 0196     		str	r6, [sp, #4]
 3070 009e 6B68     		ldr	r3, [r5, #4]
 3071 00a0 0093     		str	r3, [sp]
 3072 00a2 2B68     		ldr	r3, [r5]
 3073 00a4 654A     		ldr	r2, .L157+12
 3074 00a6 3C21     		movs	r1, #60
 3075 00a8 6E20     		movs	r0, #110
 3076 00aa FFF7FEFF 		bl	ILI9341_WriteString
 3077              	.LVL299:
 619:Core/Src/ili9341.c ****     ILI9341_WriteString(24, 90, "Am tham ben em-SonTungMTP", Font_11x18, ILI9341_BLACK, ILI9341_WHI
 3078              		.loc 1 619 5 view .LVU657
 3079 00ae 0294     		str	r4, [sp, #8]
 3080 00b0 0196     		str	r6, [sp, #4]
 3081 00b2 6B68     		ldr	r3, [r5, #4]
 3082 00b4 0093     		str	r3, [sp]
 3083 00b6 2B68     		ldr	r3, [r5]
 3084 00b8 614A     		ldr	r2, .L157+16
 3085 00ba 5A21     		movs	r1, #90
 3086 00bc 1820     		movs	r0, #24
 3087 00be FFF7FEFF 		bl	ILI9341_WriteString
 3088              	.LVL300:
 620:Core/Src/ili9341.c **** 
 621:Core/Src/ili9341.c ****     ILI9341_WriteString(40, 125, "THOI LUONG CHOI", Font_7x10, ILI9341_BLACK, ILI9341_WHITE);
 3089              		.loc 1 621 5 view .LVU658
 3090 00c2 604F     		ldr	r7, .L157+20
 3091 00c4 0294     		str	r4, [sp, #8]
 3092 00c6 0196     		str	r6, [sp, #4]
 3093 00c8 7B68     		ldr	r3, [r7, #4]
 3094 00ca 0093     		str	r3, [sp]
 3095 00cc 3B68     		ldr	r3, [r7]
 3096 00ce 5E4A     		ldr	r2, .L157+24
 3097 00d0 7D21     		movs	r1, #125
 3098 00d2 2820     		movs	r0, #40
 3099 00d4 FFF7FEFF 		bl	ILI9341_WriteString
 3100              	.LVL301:
 622:Core/Src/ili9341.c **** 
 623:Core/Src/ili9341.c **** 
 624:Core/Src/ili9341.c ****     ILI9341_WriteString(200, 125, "AM LUONG", Font_7x10, ILI9341_BLACK, ILI9341_WHITE);    
 3101              		.loc 1 624 5 view .LVU659
ARM GAS  C:\Users\ADMINI~1\AppData\Local\Temp\cc7pslQz.s 			page 76


 3102 00d8 0294     		str	r4, [sp, #8]
 3103 00da 0196     		str	r6, [sp, #4]
 3104 00dc 7B68     		ldr	r3, [r7, #4]
 3105 00de 0093     		str	r3, [sp]
 3106 00e0 3B68     		ldr	r3, [r7]
 3107 00e2 5A4A     		ldr	r2, .L157+28
 3108 00e4 7D21     		movs	r1, #125
 3109 00e6 C820     		movs	r0, #200
 3110 00e8 FFF7FEFF 		bl	ILI9341_WriteString
 3111              	.LVL302:
 625:Core/Src/ili9341.c **** 
 626:Core/Src/ili9341.c ****     ILI9341_FillCircle(160, 180, 28, ILI9341_WHITE);
 3112              		.loc 1 626 5 view .LVU660
 3113 00ec 2346     		mov	r3, r4
 3114 00ee 1C22     		movs	r2, #28
 3115 00f0 B421     		movs	r1, #180
 3116 00f2 A020     		movs	r0, #160
 3117 00f4 FFF7FEFF 		bl	ILI9341_FillCircle
 3118              	.LVL303:
 627:Core/Src/ili9341.c ****     ILI9341_FillTriangle(145, 160, 180, 180, 145, 200, ILI9341_BLUE);
 3119              		.loc 1 627 5 view .LVU661
 3120 00f8 4FF01F08 		mov	r8, #31
 3121 00fc CDF80880 		str	r8, [sp, #8]
 3122 0100 C823     		movs	r3, #200
 3123 0102 0193     		str	r3, [sp, #4]
 3124 0104 9120     		movs	r0, #145
 3125 0106 0090     		str	r0, [sp]
 3126 0108 B423     		movs	r3, #180
 3127 010a 1A46     		mov	r2, r3
 3128 010c A021     		movs	r1, #160
 3129 010e FFF7FEFF 		bl	ILI9341_FillTriangle
 3130              	.LVL304:
 628:Core/Src/ili9341.c **** 
 629:Core/Src/ili9341.c ****     ILI9341_FillCircle(110, 180, 20, ILI9341_WHITE);
 3131              		.loc 1 629 5 view .LVU662
 3132 0112 2346     		mov	r3, r4
 3133 0114 1422     		movs	r2, #20
 3134 0116 B421     		movs	r1, #180
 3135 0118 6E20     		movs	r0, #110
 3136 011a FFF7FEFF 		bl	ILI9341_FillCircle
 3137              	.LVL305:
 630:Core/Src/ili9341.c ****     ILI9341_FillTriangle(105, 165, 92, 180, 105, 195, ILI9341_BLUE);
 3138              		.loc 1 630 5 view .LVU663
 3139 011e CDF80880 		str	r8, [sp, #8]
 3140 0122 C327     		movs	r7, #195
 3141 0124 0197     		str	r7, [sp, #4]
 3142 0126 4FF06909 		mov	r9, #105
 3143 012a CDF80090 		str	r9, [sp]
 3144 012e B423     		movs	r3, #180
 3145 0130 5C22     		movs	r2, #92
 3146 0132 A521     		movs	r1, #165
 3147 0134 4846     		mov	r0, r9
 3148 0136 FFF7FEFF 		bl	ILI9341_FillTriangle
 3149              	.LVL306:
 631:Core/Src/ili9341.c ****     ILI9341_FillTriangle(118, 165, 105, 180, 118, 195, ILI9341_BLUE);
 3150              		.loc 1 631 5 view .LVU664
 3151 013a CDF80880 		str	r8, [sp, #8]
ARM GAS  C:\Users\ADMINI~1\AppData\Local\Temp\cc7pslQz.s 			page 77


 3152 013e 0197     		str	r7, [sp, #4]
 3153 0140 7620     		movs	r0, #118
 3154 0142 0090     		str	r0, [sp]
 3155 0144 B423     		movs	r3, #180
 3156 0146 4A46     		mov	r2, r9
 3157 0148 A521     		movs	r1, #165
 3158 014a FFF7FEFF 		bl	ILI9341_FillTriangle
 3159              	.LVL307:
 632:Core/Src/ili9341.c **** 
 633:Core/Src/ili9341.c ****     ILI9341_FillCircle(210, 180, 20, ILI9341_WHITE);
 3160              		.loc 1 633 5 view .LVU665
 3161 014e 2346     		mov	r3, r4
 3162 0150 1422     		movs	r2, #20
 3163 0152 B421     		movs	r1, #180
 3164 0154 D220     		movs	r0, #210
 3165 0156 FFF7FEFF 		bl	ILI9341_FillCircle
 3166              	.LVL308:
 634:Core/Src/ili9341.c ****     ILI9341_FillTriangle(202, 165, 215, 180, 202, 195, ILI9341_BLUE);
 3167              		.loc 1 634 5 view .LVU666
 3168 015a CDF80880 		str	r8, [sp, #8]
 3169 015e 0197     		str	r7, [sp, #4]
 3170 0160 CA20     		movs	r0, #202
 3171 0162 0090     		str	r0, [sp]
 3172 0164 B423     		movs	r3, #180
 3173 0166 D722     		movs	r2, #215
 3174 0168 A521     		movs	r1, #165
 3175 016a FFF7FEFF 		bl	ILI9341_FillTriangle
 3176              	.LVL309:
 635:Core/Src/ili9341.c ****     ILI9341_FillTriangle(215, 165, 228, 180, 215, 195, ILI9341_BLUE);
 3177              		.loc 1 635 5 view .LVU667
 3178 016e CDF80880 		str	r8, [sp, #8]
 3179 0172 0197     		str	r7, [sp, #4]
 3180 0174 D720     		movs	r0, #215
 3181 0176 0090     		str	r0, [sp]
 3182 0178 B423     		movs	r3, #180
 3183 017a E422     		movs	r2, #228
 3184 017c A521     		movs	r1, #165
 3185 017e FFF7FEFF 		bl	ILI9341_FillTriangle
 3186              	.LVL310:
 636:Core/Src/ili9341.c **** 
 637:Core/Src/ili9341.c ****     ILI9341_FillCircle(126, 217, 17, ILI9341_WHITE);
 3187              		.loc 1 637 5 view .LVU668
 3188 0182 2346     		mov	r3, r4
 3189 0184 1122     		movs	r2, #17
 3190 0186 D921     		movs	r1, #217
 3191 0188 7E20     		movs	r0, #126
 3192 018a FFF7FEFF 		bl	ILI9341_FillCircle
 3193              	.LVL311:
 638:Core/Src/ili9341.c ****     ILI9341_WriteString(121, 210, "-", Font_11x18, ILI9341_BLACK, ILI9341_WHITE);
 3194              		.loc 1 638 5 view .LVU669
 3195 018e 0294     		str	r4, [sp, #8]
 3196 0190 0196     		str	r6, [sp, #4]
 3197 0192 6B68     		ldr	r3, [r5, #4]
 3198 0194 0093     		str	r3, [sp]
 3199 0196 2B68     		ldr	r3, [r5]
 3200 0198 2D4A     		ldr	r2, .L157+32
 3201 019a D221     		movs	r1, #210
ARM GAS  C:\Users\ADMINI~1\AppData\Local\Temp\cc7pslQz.s 			page 78


 3202 019c 7920     		movs	r0, #121
 3203 019e FFF7FEFF 		bl	ILI9341_WriteString
 3204              	.LVL312:
 639:Core/Src/ili9341.c ****     ILI9341_FillCircle(194, 217, 17, ILI9341_WHITE);
 3205              		.loc 1 639 5 view .LVU670
 3206 01a2 2346     		mov	r3, r4
 3207 01a4 1122     		movs	r2, #17
 3208 01a6 D921     		movs	r1, #217
 3209 01a8 C220     		movs	r0, #194
 3210 01aa FFF7FEFF 		bl	ILI9341_FillCircle
 3211              	.LVL313:
 640:Core/Src/ili9341.c ****     ILI9341_WriteString(190, 210, "+", Font_11x18, ILI9341_BLACK, ILI9341_WHITE);
 3212              		.loc 1 640 5 view .LVU671
 3213 01ae 0294     		str	r4, [sp, #8]
 3214 01b0 0196     		str	r6, [sp, #4]
 3215 01b2 6B68     		ldr	r3, [r5, #4]
 3216 01b4 0093     		str	r3, [sp]
 3217 01b6 2B68     		ldr	r3, [r5]
 3218 01b8 264A     		ldr	r2, .L157+36
 3219 01ba D221     		movs	r1, #210
 3220 01bc BE20     		movs	r0, #190
 3221 01be FFF7FEFF 		bl	ILI9341_WriteString
 3222              	.LVL314:
 641:Core/Src/ili9341.c **** 
 642:Core/Src/ili9341.c ****      ILI9341_FillCircle(30, 205, 28, ILI9341_LIGHTBLUE);
 3223              		.loc 1 642 6 view .LVU672
 3224 01c2 47F67C53 		movw	r3, #32124
 3225 01c6 1C22     		movs	r2, #28
 3226 01c8 CD21     		movs	r1, #205
 3227 01ca 1E20     		movs	r0, #30
 3228 01cc FFF7FEFF 		bl	ILI9341_FillCircle
 3229              	.LVL315:
 643:Core/Src/ili9341.c **** 
 644:Core/Src/ili9341.c ****     ILI9341_FillCircle(290, 205, 28, ILI9341_LIGHTBLUE);
 3230              		.loc 1 644 5 view .LVU673
 3231 01d0 47F67C53 		movw	r3, #32124
 3232 01d4 1C22     		movs	r2, #28
 3233 01d6 CD21     		movs	r1, #205
 3234 01d8 4FF49170 		mov	r0, #290
 3235 01dc FFF7FEFF 		bl	ILI9341_FillCircle
 3236              	.LVL316:
 645:Core/Src/ili9341.c ****     ILI9341_FillRectangle(275, 195, 25, 20, ILI9341_WHITE);
 3237              		.loc 1 645 5 view .LVU674
 3238 01e0 0094     		str	r4, [sp]
 3239 01e2 1423     		movs	r3, #20
 3240 01e4 1922     		movs	r2, #25
 3241 01e6 3946     		mov	r1, r7
 3242 01e8 40F21310 		movw	r0, #275
 3243 01ec FFF7FEFF 		bl	ILI9341_FillRectangle
 3244              	.LVL317:
 646:Core/Src/ili9341.c ****     ILI9341_FillTriangle(300, 190, 310, 205, 300, 220, ILI9341_WHITE);
 3245              		.loc 1 646 5 view .LVU675
 3246 01f0 0294     		str	r4, [sp, #8]
 3247 01f2 DC25     		movs	r5, #220
 3248 01f4 0195     		str	r5, [sp, #4]
 3249 01f6 4FF49670 		mov	r0, #300
 3250 01fa 0090     		str	r0, [sp]
ARM GAS  C:\Users\ADMINI~1\AppData\Local\Temp\cc7pslQz.s 			page 79


 3251 01fc CD23     		movs	r3, #205
 3252 01fe 4FF49B72 		mov	r2, #310
 3253 0202 BE21     		movs	r1, #190
 3254 0204 FFF7FEFF 		bl	ILI9341_FillTriangle
 3255              	.LVL318:
 647:Core/Src/ili9341.c ****     ILI9341_FillRectangle(20, 195, 25, 20, ILI9341_WHITE);
 3256              		.loc 1 647 5 view .LVU676
 3257 0208 0094     		str	r4, [sp]
 3258 020a 1423     		movs	r3, #20
 3259 020c 1922     		movs	r2, #25
 3260 020e 3946     		mov	r1, r7
 3261 0210 1846     		mov	r0, r3
 3262 0212 FFF7FEFF 		bl	ILI9341_FillRectangle
 3263              	.LVL319:
 648:Core/Src/ili9341.c ****     ILI9341_FillTriangle(20, 190, 10, 205, 20, 220, ILI9341_WHITE);
 3264              		.loc 1 648 5 view .LVU677
 3265 0216 0294     		str	r4, [sp, #8]
 3266 0218 0195     		str	r5, [sp, #4]
 3267 021a 1420     		movs	r0, #20
 3268 021c 0090     		str	r0, [sp]
 3269 021e CD23     		movs	r3, #205
 3270 0220 0A22     		movs	r2, #10
 3271 0222 BE21     		movs	r1, #190
 3272 0224 FFF7FEFF 		bl	ILI9341_FillTriangle
 3273              	.LVL320:
 649:Core/Src/ili9341.c **** }
 3274              		.loc 1 649 1 is_stmt 0 view .LVU678
 3275 0228 05B0     		add	sp, sp, #20
 3276              	.LCFI64:
 3277              		.cfi_def_cfa_offset 28
 3278              		@ sp needed
 3279 022a BDE8F083 		pop	{r4, r5, r6, r7, r8, r9, pc}
 3280              	.L158:
 3281 022e 00BF     		.align	2
 3282              	.L157:
 3283 0230 00000000 		.word	Font_11x18
 3284 0234 00000000 		.word	.LC6
 3285 0238 10000000 		.word	.LC7
 3286 023c 00000000 		.word	.LC20
 3287 0240 0C000000 		.word	.LC21
 3288 0244 00000000 		.word	Font_7x10
 3289 0248 28000000 		.word	.LC22
 3290 024c 38000000 		.word	.LC23
 3291 0250 44000000 		.word	.LC24
 3292 0254 48000000 		.word	.LC25
 3293              		.cfi_endproc
 3294              	.LFE88:
 3296              		.section	.rodata
 3297              		.align	2
 3298              		.set	.LANCHOR0,. + 0
 3299              	.LC0:
 3300 0000 392C0034 		.ascii	"9,\0004\002"
 3300      02
 3301 0005 000000   		.space	3
 3302              	.LC1:
 3303 0008 00C130   		.ascii	"\000\3010"
 3304 000b 00       		.space	1
ARM GAS  C:\Users\ADMINI~1\AppData\Local\Temp\cc7pslQz.s 			page 80


 3305              	.LC2:
 3306 000c 850078   		.ascii	"\205\000x"
 3307 000f 00       		.space	1
 3308              	.LC5:
 3309 0010 000E1403 		.ascii	"\000\016\024\003\021\0071\301H\010\017\01416\017"
 3309      110731C1 
 3309      48080F0C 
 3309      31360F
 3310              		.text
 3311              	.Letext0:
 3312              		.file 2 "c:\\program files (x86)\\gnu arm embedded toolchain\\10 2021.10\\arm-none-eabi\\include\\
 3313              		.file 3 "c:\\program files (x86)\\gnu arm embedded toolchain\\10 2021.10\\arm-none-eabi\\include\\
 3314              		.file 4 "Drivers/CMSIS/Device/ST/STM32F1xx/Include/stm32f103xe.h"
 3315              		.file 5 "c:\\program files (x86)\\gnu arm embedded toolchain\\10 2021.10\\lib\\gcc\\arm-none-eabi\
 3316              		.file 6 "Drivers/CMSIS/Device/ST/STM32F1xx/Include/stm32f1xx.h"
 3317              		.file 7 "Drivers/STM32F1xx_HAL_Driver/Inc/stm32f1xx_hal_def.h"
 3318              		.file 8 "Drivers/STM32F1xx_HAL_Driver/Inc/stm32f1xx_hal_gpio.h"
 3319              		.file 9 "Drivers/STM32F1xx_HAL_Driver/Inc/stm32f1xx_hal_dma.h"
 3320              		.file 10 "Drivers/STM32F1xx_HAL_Driver/Inc/stm32f1xx_hal_spi.h"
 3321              		.file 11 "Core/Inc/font.h"
 3322              		.file 12 "Core/Inc/touch.h"
 3323              		.file 13 "Drivers/STM32F1xx_HAL_Driver/Inc/stm32f1xx_hal.h"
ARM GAS  C:\Users\ADMINI~1\AppData\Local\Temp\cc7pslQz.s 			page 81

